

Microchip MPLAB XC8 Assembler V2.31 build 20201012212115 
                                                                                               Fri Jul 30 17:19:05 2021

Microchip MPLAB XC8 C Compiler v2.31 (Free license) build 20201012212115 Og1 
     1                           	processor	16F887
     2                           	pagewidth 120
     3                           	opt	flic
     4                           	psect	strings,global,class=STRING,delta=2,noexec
     5                           	psect	cinit,global,class=CODE,merge=1,delta=2
     6                           	psect	bssCOMMON,global,class=COMMON,space=1,delta=1,noexec
     7                           	psect	bssBANK0,global,class=BANK0,space=1,delta=1,noexec
     8                           	psect	cstackCOMMON,global,class=COMMON,space=1,delta=1,noexec
     9                           	psect	cstackBANK0,global,class=BANK0,space=1,delta=1,noexec
    10                           	psect	maintext,global,class=CODE,split=1,delta=2
    11                           	psect	text1,local,class=CODE,merge=1,delta=2
    12                           	psect	text2,local,class=CODE,merge=1,delta=2
    13                           	psect	text3,local,class=CODE,merge=1,delta=2
    14                           	psect	text4,local,class=CODE,merge=1,delta=2
    15                           	psect	text5,local,class=CODE,merge=1,delta=2,group=2
    16                           	psect	text6,local,class=CODE,merge=1,delta=2,group=2
    17                           	psect	text7,local,class=CODE,merge=1,delta=2
    18                           	psect	text8,local,class=CODE,merge=1,delta=2,group=1
    19                           	psect	text9,local,class=CODE,merge=1,delta=2,group=1
    20                           	psect	text10,local,class=CODE,merge=1,delta=2,group=1
    21                           	psect	text11,local,class=CODE,merge=1,delta=2,group=1
    22                           	psect	text12,local,class=CODE,merge=1,delta=2,group=1
    23                           	psect	text13,local,class=CODE,merge=1,delta=2,group=1
    24                           	psect	text14,local,class=CODE,merge=1,delta=2,group=1
    25                           	psect	text15,local,class=CODE,merge=1,delta=2
    26                           	psect	text16,local,class=CODE,merge=1,delta=2
    27                           	psect	text17,local,class=CODE,merge=1,delta=2
    28                           	psect	text18,local,class=CODE,merge=1,delta=2,group=1
    29                           	psect	text19,local,class=CODE,merge=1,delta=2
    30                           	psect	intentry,global,class=CODE,delta=2
    31                           	psect	config,global,abs,ovrld,class=CONFIG,space=4,delta=2,noexec
    32                           	dabs	1,0x7E,2
    33  0000                     
    34                           ; Version 2.20
    35                           ; Generated 12/02/2020 GMT
    36                           ; 
    37                           ; Copyright © 2020, Microchip Technology Inc. and its subsidiaries ("Microchip")
    38                           ; All rights reserved.
    39                           ; 
    40                           ; This software is developed by Microchip Technology Inc. and its subsidiaries ("Microch
      +                          ip").
    41                           ; 
    42                           ; Redistribution and use in source and binary forms, with or without modification, are
    43                           ; permitted provided that the following conditions are met:
    44                           ; 
    45                           ;     1. Redistributions of source code must retain the above copyright notice, this lis
      +                          t of
    46                           ;        conditions and the following disclaimer.
    47                           ; 
    48                           ;     2. Redistributions in binary form must reproduce the above copyright notice, this 
      +                          list
    49                           ;        of conditions and the following disclaimer in the documentation and/or other
    50                           ;        materials provided with the distribution.
    51                           ; 
    52                           ;     3. Microchip's name may not be used to endorse or promote products derived from th
      +                          is
    53                           ;        software without specific prior written permission.
    54                           ; 
    55                           ; THIS SOFTWARE IS PROVIDED BY MICROCHIP "AS IS" AND ANY EXPRESS OR IMPLIED WARRANTIES,
    56                           ; INCLUDING, BUT NOT LIMITED TO, THE IMPLIED WARRANTIES OF MERCHANTABILITY AND FITNESS F
      +                          OR
    57                           ; PURPOSE ARE DISCLAIMED.  IN NO EVENT SHALL MICROCHIP BE LIABLE FOR ANY DIRECT, INDIREC
      +                          T,
    58                           ; INCIDENTAL, SPECIAL, EXEMPLARY, OR CONSEQUENTIAL DAMAGES (INCLUDING BUT NOT LIMITED TO
    59                           ; PROCUREMENT OF SUBSTITUTE GOODS OR SERVICES; LOSS OF USE, DATA OR PROFITS; OR BUSINESS
    60                           ; INTERRUPTION) HOWSOEVER CAUSED AND ON ANY THEORY OF LIABILITY, WHETHER IN CONTRACT, ST
      +                          RICT
    61                           ; LIABILITY, OR TORT (INCLUDING NEGLIGENCE OR OTHERWISE) ARISING IN ANY WAY OUT OF THE U
      +                          SE OF
    62                           ; THIS SOFTWARE, EVEN IF ADVISED OF THE POSSIBILITY OF SUCH DAMAGE.
    63                           ; 
    64                           ; 
    65                           ; Code-generator required, PIC16F887 Definitions
    66                           ; 
    67                           ; SFR Addresses
    68  0000                     	;# 
    69  0001                     	;# 
    70  0002                     	;# 
    71  0003                     	;# 
    72  0004                     	;# 
    73  0005                     	;# 
    74  0006                     	;# 
    75  0007                     	;# 
    76  0008                     	;# 
    77  0009                     	;# 
    78  000A                     	;# 
    79  000B                     	;# 
    80  000C                     	;# 
    81  000D                     	;# 
    82  000E                     	;# 
    83  000E                     	;# 
    84  000F                     	;# 
    85  0010                     	;# 
    86  0011                     	;# 
    87  0012                     	;# 
    88  0013                     	;# 
    89  0014                     	;# 
    90  0015                     	;# 
    91  0015                     	;# 
    92  0016                     	;# 
    93  0017                     	;# 
    94  0018                     	;# 
    95  0019                     	;# 
    96  001A                     	;# 
    97  001B                     	;# 
    98  001B                     	;# 
    99  001C                     	;# 
   100  001D                     	;# 
   101  001E                     	;# 
   102  001F                     	;# 
   103  0081                     	;# 
   104  0085                     	;# 
   105  0086                     	;# 
   106  0087                     	;# 
   107  0088                     	;# 
   108  0089                     	;# 
   109  008C                     	;# 
   110  008D                     	;# 
   111  008E                     	;# 
   112  008F                     	;# 
   113  0090                     	;# 
   114  0091                     	;# 
   115  0092                     	;# 
   116  0093                     	;# 
   117  0093                     	;# 
   118  0093                     	;# 
   119  0094                     	;# 
   120  0095                     	;# 
   121  0096                     	;# 
   122  0097                     	;# 
   123  0098                     	;# 
   124  0099                     	;# 
   125  009A                     	;# 
   126  009B                     	;# 
   127  009C                     	;# 
   128  009D                     	;# 
   129  009E                     	;# 
   130  009F                     	;# 
   131  0105                     	;# 
   132  0107                     	;# 
   133  0108                     	;# 
   134  0109                     	;# 
   135  010C                     	;# 
   136  010C                     	;# 
   137  010D                     	;# 
   138  010E                     	;# 
   139  010F                     	;# 
   140  0185                     	;# 
   141  0187                     	;# 
   142  0188                     	;# 
   143  0189                     	;# 
   144  018C                     	;# 
   145  018D                     	;# 
   146  0000                     	;# 
   147  0001                     	;# 
   148  0002                     	;# 
   149  0003                     	;# 
   150  0004                     	;# 
   151  0005                     	;# 
   152  0006                     	;# 
   153  0007                     	;# 
   154  0008                     	;# 
   155  0009                     	;# 
   156  000A                     	;# 
   157  000B                     	;# 
   158  000C                     	;# 
   159  000D                     	;# 
   160  000E                     	;# 
   161  000E                     	;# 
   162  000F                     	;# 
   163  0010                     	;# 
   164  0011                     	;# 
   165  0012                     	;# 
   166  0013                     	;# 
   167  0014                     	;# 
   168  0015                     	;# 
   169  0015                     	;# 
   170  0016                     	;# 
   171  0017                     	;# 
   172  0018                     	;# 
   173  0019                     	;# 
   174  001A                     	;# 
   175  001B                     	;# 
   176  001B                     	;# 
   177  001C                     	;# 
   178  001D                     	;# 
   179  001E                     	;# 
   180  001F                     	;# 
   181  0081                     	;# 
   182  0085                     	;# 
   183  0086                     	;# 
   184  0087                     	;# 
   185  0088                     	;# 
   186  0089                     	;# 
   187  008C                     	;# 
   188  008D                     	;# 
   189  008E                     	;# 
   190  008F                     	;# 
   191  0090                     	;# 
   192  0091                     	;# 
   193  0092                     	;# 
   194  0093                     	;# 
   195  0093                     	;# 
   196  0093                     	;# 
   197  0094                     	;# 
   198  0095                     	;# 
   199  0096                     	;# 
   200  0097                     	;# 
   201  0098                     	;# 
   202  0099                     	;# 
   203  009A                     	;# 
   204  009B                     	;# 
   205  009C                     	;# 
   206  009D                     	;# 
   207  009E                     	;# 
   208  009F                     	;# 
   209  0105                     	;# 
   210  0107                     	;# 
   211  0108                     	;# 
   212  0109                     	;# 
   213  010C                     	;# 
   214  010C                     	;# 
   215  010D                     	;# 
   216  010E                     	;# 
   217  010F                     	;# 
   218  0185                     	;# 
   219  0187                     	;# 
   220  0188                     	;# 
   221  0189                     	;# 
   222  018C                     	;# 
   223  018D                     	;# 
   224  0000                     	;# 
   225  0001                     	;# 
   226  0002                     	;# 
   227  0003                     	;# 
   228  0004                     	;# 
   229  0005                     	;# 
   230  0006                     	;# 
   231  0007                     	;# 
   232  0008                     	;# 
   233  0009                     	;# 
   234  000A                     	;# 
   235  000B                     	;# 
   236  000C                     	;# 
   237  000D                     	;# 
   238  000E                     	;# 
   239  000E                     	;# 
   240  000F                     	;# 
   241  0010                     	;# 
   242  0011                     	;# 
   243  0012                     	;# 
   244  0013                     	;# 
   245  0014                     	;# 
   246  0015                     	;# 
   247  0015                     	;# 
   248  0016                     	;# 
   249  0017                     	;# 
   250  0018                     	;# 
   251  0019                     	;# 
   252  001A                     	;# 
   253  001B                     	;# 
   254  001B                     	;# 
   255  001C                     	;# 
   256  001D                     	;# 
   257  001E                     	;# 
   258  001F                     	;# 
   259  0081                     	;# 
   260  0085                     	;# 
   261  0086                     	;# 
   262  0087                     	;# 
   263  0088                     	;# 
   264  0089                     	;# 
   265  008C                     	;# 
   266  008D                     	;# 
   267  008E                     	;# 
   268  008F                     	;# 
   269  0090                     	;# 
   270  0091                     	;# 
   271  0092                     	;# 
   272  0093                     	;# 
   273  0093                     	;# 
   274  0093                     	;# 
   275  0094                     	;# 
   276  0095                     	;# 
   277  0096                     	;# 
   278  0097                     	;# 
   279  0098                     	;# 
   280  0099                     	;# 
   281  009A                     	;# 
   282  009B                     	;# 
   283  009C                     	;# 
   284  009D                     	;# 
   285  009E                     	;# 
   286  009F                     	;# 
   287  0105                     	;# 
   288  0107                     	;# 
   289  0108                     	;# 
   290  0109                     	;# 
   291  010C                     	;# 
   292  010C                     	;# 
   293  010D                     	;# 
   294  010E                     	;# 
   295  010F                     	;# 
   296  0185                     	;# 
   297  0187                     	;# 
   298  0188                     	;# 
   299  0189                     	;# 
   300  018C                     	;# 
   301  018D                     	;# 
   302  0000                     	;# 
   303  0001                     	;# 
   304  0002                     	;# 
   305  0003                     	;# 
   306  0004                     	;# 
   307  0005                     	;# 
   308  0006                     	;# 
   309  0007                     	;# 
   310  0008                     	;# 
   311  0009                     	;# 
   312  000A                     	;# 
   313  000B                     	;# 
   314  000C                     	;# 
   315  000D                     	;# 
   316  000E                     	;# 
   317  000E                     	;# 
   318  000F                     	;# 
   319  0010                     	;# 
   320  0011                     	;# 
   321  0012                     	;# 
   322  0013                     	;# 
   323  0014                     	;# 
   324  0015                     	;# 
   325  0015                     	;# 
   326  0016                     	;# 
   327  0017                     	;# 
   328  0018                     	;# 
   329  0019                     	;# 
   330  001A                     	;# 
   331  001B                     	;# 
   332  001B                     	;# 
   333  001C                     	;# 
   334  001D                     	;# 
   335  001E                     	;# 
   336  001F                     	;# 
   337  0081                     	;# 
   338  0085                     	;# 
   339  0086                     	;# 
   340  0087                     	;# 
   341  0088                     	;# 
   342  0089                     	;# 
   343  008C                     	;# 
   344  008D                     	;# 
   345  008E                     	;# 
   346  008F                     	;# 
   347  0090                     	;# 
   348  0091                     	;# 
   349  0092                     	;# 
   350  0093                     	;# 
   351  0093                     	;# 
   352  0093                     	;# 
   353  0094                     	;# 
   354  0095                     	;# 
   355  0096                     	;# 
   356  0097                     	;# 
   357  0098                     	;# 
   358  0099                     	;# 
   359  009A                     	;# 
   360  009B                     	;# 
   361  009C                     	;# 
   362  009D                     	;# 
   363  009E                     	;# 
   364  009F                     	;# 
   365  0105                     	;# 
   366  0107                     	;# 
   367  0108                     	;# 
   368  0109                     	;# 
   369  010C                     	;# 
   370  010C                     	;# 
   371  010D                     	;# 
   372  010E                     	;# 
   373  010F                     	;# 
   374  0185                     	;# 
   375  0187                     	;# 
   376  0188                     	;# 
   377  0189                     	;# 
   378  018C                     	;# 
   379  018D                     	;# 
   380  0005                     _PORTA	set	5
   381  000B                     _INTCONbits	set	11
   382  0013                     _SSPBUF	set	19
   383  0014                     _SSPCON	set	20
   384  001A                     _RCREG	set	26
   385  000C                     _PIR1bits	set	12
   386  0019                     _TXREG	set	25
   387  0018                     _RCSTAbits	set	24
   388  008C                     _PIE1bits	set	140
   389  0085                     _TRISA	set	133
   390  0094                     _SSPSTATbits	set	148
   391  0094                     _SSPSTAT	set	148
   392  0087                     _TRISCbits	set	135
   393  0098                     _TXSTAbits	set	152
   394  0099                     _SPBRG	set	153
   395  043B                     _TRISC3	set	1083
   396  043D                     _TRISC5	set	1085
   397  0189                     _ANSELH	set	393
   398  0188                     _ANSEL	set	392
   399                           
   400                           	psect	strings
   401  0800                     __pstrings:
   402  0800                     stringtab:
   403  0800                     __stringtab:
   404                           
   405                           ;	String table - string pointers are 1 byte each
   406  0800  1BFF               	btfsc	btemp+1,7
   407  0801  280A               	ljmp	stringcode
   408  0802  1383               	bcf	3,7
   409  0803  187F               	btfsc	btemp+1,0
   410  0804  1783               	bsf	3,7
   411  0805  0800               	movf	0,w
   412  0806  0A84               	incf	4,f
   413  0807  1903               	skipnz
   414  0808  0AFF               	incf	btemp+1,f
   415  0809  0008               	return
   416  080A                     stringcode:
   417  080A                     stringdir:
   418  080A  3008               	movlw	high stringdir
   419  080B  008A               	movwf	10
   420  080C  0804               	movf	4,w
   421  080D  0A84               	incf	4,f
   422  080E  0782               	addwf	2,f
   423  080F                     __stringbase:
   424  080F  3400               	retlw	0
   425  0810                     __end_of__stringtab:
   426  0810                     STR_2:
   427  0810  3420               	retlw	32	;' '
   428  0811  3420               	retlw	32	;' '
   429  0812  3420               	retlw	32	;' '
   430  0813  3450               	retlw	80	;'P'
   431  0814  344F               	retlw	79	;'O'
   432  0815  3454               	retlw	84	;'T'
   433  0816  3420               	retlw	32	;' '
   434  0817  3432               	retlw	50	;'2'
   435  0818  343A               	retlw	58	;':'
   436  0819  3420               	retlw	32	;' '
   437  081A  3400               	retlw	0
   438  081B                     STR_1:
   439  081B  3450               	retlw	80	;'P'
   440  081C  344F               	retlw	79	;'O'
   441  081D  3454               	retlw	84	;'T'
   442  081E  3420               	retlw	32	;' '
   443  081F  3431               	retlw	49	;'1'
   444  0820  343A               	retlw	58	;':'
   445  0821  3420               	retlw	32	;' '
   446  0822  3400               	retlw	0
   447  0823                     STR_3:
   448  0823  340A               	retlw	10
   449  0824  3400               	retlw	0
   450                           
   451                           	psect	cinit
   452  0011                     start_initialization:	
   453                           ; #config settings
   454                           
   455  0011                     __initialization:
   456                           
   457                           ; Clear objects allocated to COMMON
   458  0011  01F6               	clrf	__pbssCOMMON& (0+127)
   459  0012  01F7               	clrf	(__pbssCOMMON+1)& (0+127)
   460  0013  01F8               	clrf	(__pbssCOMMON+2)& (0+127)
   461  0014  01F9               	clrf	(__pbssCOMMON+3)& (0+127)
   462                           
   463                           ; Clear objects allocated to BANK0
   464  0015  1283               	bcf	3,5	;RP0=0, select bank0
   465  0016  1303               	bcf	3,6	;RP1=0, select bank0
   466  0017  01E0               	clrf	__pbssBANK0& (0+127)
   467  0018  01E1               	clrf	(__pbssBANK0+1)& (0+127)
   468  0019  01E2               	clrf	(__pbssBANK0+2)& (0+127)
   469  001A  01E3               	clrf	(__pbssBANK0+3)& (0+127)
   470  001B  01E4               	clrf	(__pbssBANK0+4)& (0+127)
   471  001C                     end_of_initialization:	
   472                           ;End of C runtime variable initialization code
   473                           
   474  001C                     __end_of__initialization:
   475  001C  0183               	clrf	3
   476  001D  120A  118A  2B81   	ljmp	_main	;jump to C main() function
   477                           
   478                           	psect	bssCOMMON
   479  0076                     __pbssCOMMON:
   480  0076                     _auxiliar:
   481  0076                     	ds	1
   482  0077                     _valueADC2:
   483  0077                     	ds	1
   484  0078                     _cadenaADC:
   485  0078                     	ds	1
   486  0079                     _valueADC:
   487  0079                     	ds	1
   488                           
   489                           	psect	bssBANK0
   490  0060                     __pbssBANK0:
   491  0060                     _contador:
   492  0060                     	ds	1
   493  0061                     _caracteres:
   494  0061                     	ds	4
   495                           
   496                           	psect	cstackCOMMON
   497  0070                     __pcstackCOMMON:
   498  0070                     ?_isdigit:
   499  0070                     ?_UARTSendChar:	
   500                           ; 1 bit 
   501                           
   502  0070                     ?_spiReceiveWait:	
   503                           ; 1 bytes @ 0x0
   504                           
   505  0070                     ?_spiWrite:	
   506                           ; 1 bytes @ 0x0
   507                           
   508  0070                     ?_spiRead:	
   509                           ; 1 bytes @ 0x0
   510                           
   511  0070                     ?_isr:	
   512                           ; 1 bytes @ 0x0
   513                           
   514  0070                     ??_isr:	
   515                           ; 1 bytes @ 0x0
   516                           
   517  0070                     ?_main:	
   518                           ; 1 bytes @ 0x0
   519                           
   520                           
   521                           ; 2 bytes @ 0x0
   522  0070                     	ds	4
   523  0074                     ??_isdigit:
   524  0074                     ??_UARTSendChar:	
   525                           ; 1 bytes @ 0x4
   526                           
   527  0074                     ??_spiInit:	
   528                           ; 1 bytes @ 0x4
   529                           
   530  0074                     ??_spiReceiveWait:	
   531                           ; 1 bytes @ 0x4
   532                           
   533  0074                     ??_spiWrite:	
   534                           ; 1 bytes @ 0x4
   535                           
   536  0074                     ??_spiRead:	
   537                           ; 1 bytes @ 0x4
   538                           
   539  0074                     ??___wmul:	
   540                           ; 1 bytes @ 0x4
   541                           
   542  0074                     ??___lldiv:	
   543                           ; 1 bytes @ 0x4
   544                           
   545  0074                     ??___lwdiv:	
   546                           ; 1 bytes @ 0x4
   547                           
   548  0074                     ??___lwmod:	
   549                           ; 1 bytes @ 0x4
   550                           
   551  0074                     ?__Umul8_16:	
   552                           ; 1 bytes @ 0x4
   553                           
   554  0074                     UARTSendChar@c:	
   555                           ; 2 bytes @ 0x4
   556                           
   557  0074                     spiInit@sType:	
   558                           ; 1 bytes @ 0x4
   559                           
   560  0074                     spiWrite@dat:	
   561                           ; 1 bytes @ 0x4
   562                           
   563  0074                     __Umul8_16@multiplicand:	
   564                           ; 1 bytes @ 0x4
   565                           
   566  0074                     _isdigit$909:	
   567                           ; 1 bytes @ 0x4
   568                           
   569  0074                     ___wmul@product:	
   570                           ; 1 bytes @ 0x4
   571                           
   572                           
   573                           ; 2 bytes @ 0x4
   574  0074                     	ds	1
   575  0075                     ___lwmod@counter:
   576  0075                     isdigit@c:	
   577                           ; 1 bytes @ 0x5
   578                           
   579                           
   580                           ; 1 bytes @ 0x5
   581  0075                     	ds	1
   582                           
   583                           	psect	cstackBANK0
   584  0020                     __pcstackBANK0:
   585  0020                     ??__Umul8_16:
   586  0020                     ?_UARTSendString:	
   587                           ; 1 bytes @ 0x0
   588                           
   589  0020                     ?_spiInit:	
   590                           ; 1 bytes @ 0x0
   591                           
   592  0020                     ?___wmul:	
   593                           ; 1 bytes @ 0x0
   594                           
   595  0020                     ?___lwdiv:	
   596                           ; 2 bytes @ 0x0
   597                           
   598  0020                     ?___lwmod:	
   599                           ; 2 bytes @ 0x0
   600                           
   601  0020                     ?___lldiv:	
   602                           ; 2 bytes @ 0x0
   603                           
   604  0020                     ?___xxtofl:	
   605                           ; 4 bytes @ 0x0
   606                           
   607  0020                     spiInit@sDataSample:	
   608                           ; 4 bytes @ 0x0
   609                           
   610  0020                     UARTSendString@str:	
   611                           ; 1 bytes @ 0x0
   612                           
   613  0020                     ___wmul@multiplier:	
   614                           ; 2 bytes @ 0x0
   615                           
   616  0020                     ___lwdiv@divisor:	
   617                           ; 2 bytes @ 0x0
   618                           
   619  0020                     ___lwmod@divisor:	
   620                           ; 2 bytes @ 0x0
   621                           
   622  0020                     ___lldiv@divisor:	
   623                           ; 2 bytes @ 0x0
   624                           
   625  0020                     ___xxtofl@val:	
   626                           ; 4 bytes @ 0x0
   627                           
   628                           
   629                           ; 4 bytes @ 0x0
   630  0020                     	ds	1
   631  0021                     spiInit@sClockIdle:
   632                           
   633                           ; 1 bytes @ 0x1
   634  0021                     	ds	1
   635  0022                     UARTSendString@max_length:
   636  0022                     spiInit@sTransmitEdge:	
   637                           ; 1 bytes @ 0x2
   638                           
   639  0022                     ___wmul@multiplicand:	
   640                           ; 1 bytes @ 0x2
   641                           
   642  0022                     ___lwdiv@dividend:	
   643                           ; 2 bytes @ 0x2
   644                           
   645  0022                     ___lwmod@dividend:	
   646                           ; 2 bytes @ 0x2
   647                           
   648  0022                     __Umul8_16@product:	
   649                           ; 2 bytes @ 0x2
   650                           
   651                           
   652                           ; 2 bytes @ 0x2
   653  0022                     	ds	1
   654  0023                     ??_UARTSendString:
   655                           
   656                           ; 1 bytes @ 0x3
   657  0023                     	ds	1
   658  0024                     ??___xxtofl:
   659  0024                     ?_atoi:	
   660                           ; 1 bytes @ 0x4
   661                           
   662  0024                     ___lwdiv@counter:	
   663                           ; 2 bytes @ 0x4
   664                           
   665  0024                     __Umul8_16@word_mpld:	
   666                           ; 1 bytes @ 0x4
   667                           
   668  0024                     ___lldiv@dividend:	
   669                           ; 2 bytes @ 0x4
   670                           
   671                           
   672                           ; 4 bytes @ 0x4
   673  0024                     	ds	1
   674  0025                     ___lwdiv@quotient:
   675                           
   676                           ; 2 bytes @ 0x5
   677  0025                     	ds	1
   678  0026                     ??_atoi:
   679  0026                     __Umul8_16@multiplier:	
   680                           ; 1 bytes @ 0x6
   681                           
   682  0026                     UARTSendString@i:	
   683                           ; 1 bytes @ 0x6
   684                           
   685                           
   686                           ; 2 bytes @ 0x6
   687  0026                     	ds	2
   688  0028                     ___xxtofl@sign:
   689  0028                     atoi@sign:	
   690                           ; 1 bytes @ 0x8
   691                           
   692  0028                     ___lldiv@quotient:	
   693                           ; 1 bytes @ 0x8
   694                           
   695                           
   696                           ; 4 bytes @ 0x8
   697  0028                     	ds	1
   698  0029                     ___xxtofl@exp:
   699  0029                     atoi@a:	
   700                           ; 1 bytes @ 0x9
   701                           
   702                           
   703                           ; 2 bytes @ 0x9
   704  0029                     	ds	1
   705  002A                     ___xxtofl@arg:
   706                           
   707                           ; 4 bytes @ 0xA
   708  002A                     	ds	1
   709  002B                     atoi@s:
   710                           
   711                           ; 1 bytes @ 0xB
   712  002B                     	ds	1
   713  002C                     ___lldiv@counter:
   714                           
   715                           ; 1 bytes @ 0xC
   716  002C                     	ds	1
   717  002D                     ?_UARTInit:
   718  002D                     UARTInit@baud_rate:	
   719                           ; 1 bytes @ 0xD
   720                           
   721                           
   722                           ; 4 bytes @ 0xD
   723  002D                     	ds	1
   724  002E                     ?___flmul:
   725  002E                     ___flmul@b:	
   726                           ; 4 bytes @ 0xE
   727                           
   728                           
   729                           ; 4 bytes @ 0xE
   730  002E                     	ds	3
   731  0031                     UARTInit@BRGH:
   732                           
   733                           ; 1 bytes @ 0x11
   734  0031                     	ds	1
   735  0032                     ??_UARTInit:
   736  0032                     ___flmul@a:	
   737                           ; 1 bytes @ 0x12
   738                           
   739                           
   740                           ; 4 bytes @ 0x12
   741  0032                     	ds	4
   742  0036                     ??___flmul:
   743                           
   744                           ; 1 bytes @ 0x16
   745  0036                     	ds	5
   746  003B                     ___flmul@sign:
   747                           
   748                           ; 1 bytes @ 0x1B
   749  003B                     	ds	1
   750  003C                     ___flmul@aexp:
   751                           
   752                           ; 1 bytes @ 0x1C
   753  003C                     	ds	1
   754  003D                     ___flmul@grs:
   755                           
   756                           ; 4 bytes @ 0x1D
   757  003D                     	ds	4
   758  0041                     ___flmul@bexp:
   759                           
   760                           ; 1 bytes @ 0x21
   761  0041                     	ds	1
   762  0042                     ___flmul@prod:
   763                           
   764                           ; 4 bytes @ 0x22
   765  0042                     	ds	4
   766  0046                     ___flmul@temp:
   767                           
   768                           ; 2 bytes @ 0x26
   769  0046                     	ds	2
   770  0048                     ?___fltol:
   771  0048                     ___fltol@f1:	
   772                           ; 4 bytes @ 0x28
   773                           
   774                           
   775                           ; 4 bytes @ 0x28
   776  0048                     	ds	4
   777  004C                     ??___fltol:
   778                           
   779                           ; 1 bytes @ 0x2C
   780  004C                     	ds	5
   781  0051                     ___fltol@sign1:
   782                           
   783                           ; 1 bytes @ 0x31
   784  0051                     	ds	1
   785  0052                     ___fltol@exp1:
   786                           
   787                           ; 1 bytes @ 0x32
   788  0052                     	ds	1
   789  0053                     ?_adcToString:
   790  0053                     adcToString@value:	
   791                           ; 1 bytes @ 0x33
   792                           
   793                           
   794                           ; 2 bytes @ 0x33
   795  0053                     	ds	2
   796  0055                     ??_adcToString:
   797                           
   798                           ; 1 bytes @ 0x35
   799  0055                     	ds	1
   800  0056                     adcToString@salida:
   801                           
   802                           ; 5 bytes @ 0x36
   803  0056                     	ds	5
   804  005B                     adcToString@digito:
   805                           
   806                           ; 2 bytes @ 0x3B
   807  005B                     	ds	2
   808  005D                     ??_main:
   809                           
   810                           ; 1 bytes @ 0x3D
   811  005D                     	ds	3
   812                           
   813                           	psect	maintext
   814  0381                     __pmaintext:	
   815 ;;
   816 ;;Main: autosize = 0, tempsize = 3, incstack = 0, save=0
   817 ;;
   818 ;; *************** function _main *****************
   819 ;; Defined at:
   820 ;;		line 65 in file "mainM.c"
   821 ;; Parameters:    Size  Location     Type
   822 ;;		None
   823 ;; Auto vars:     Size  Location     Type
   824 ;;		None
   825 ;; Return value:  Size  Location     Type
   826 ;;                  2  141[None  ] int 
   827 ;; Registers used:
   828 ;;		wreg, fsr0l, fsr0h, status,2, status,0, btemp+1, pclath, cstack
   829 ;; Tracked objects:
   830 ;;		On entry : B00/0
   831 ;;		On exit  : 0/0
   832 ;;		Unchanged: 0/0
   833 ;; Data sizes:     COMMON   BANK0   BANK1   BANK3   BANK2
   834 ;;      Params:         0       0       0       0       0
   835 ;;      Locals:         0       0       0       0       0
   836 ;;      Temps:          0       3       0       0       0
   837 ;;      Totals:         0       3       0       0       0
   838 ;;Total ram usage:        3 bytes
   839 ;; Hardware stack levels required when called:    4
   840 ;; This function calls:
   841 ;;		_UARTInit
   842 ;;		_UARTSendString
   843 ;;		_adcToString
   844 ;;		_atoi
   845 ;;		_spiInit
   846 ;;		_spiRead
   847 ;;		_spiWrite
   848 ;; This function is called by:
   849 ;;		Startup code after reset
   850 ;; This function uses a non-reentrant model
   851 ;;
   852                           
   853                           
   854                           ;psect for function _main
   855  0381                     _main:
   856  0381                     l2256:	
   857                           ;incstack = 0
   858                           ; Regs used in _main: [wreg-fsr0h+status,2+status,0+btemp+1+pclath+cstack]
   859                           
   860                           
   861                           ;mainM.c: 67:   ANSEL = 0;
   862  0381  1683               	bsf	3,5	;RP0=1, select bank3
   863  0382  1703               	bsf	3,6	;RP1=1, select bank3
   864  0383  0188               	clrf	8	;volatile
   865                           
   866                           ;mainM.c: 68:   ANSELH = 0;
   867  0384  0189               	clrf	9	;volatile
   868                           
   869                           ;mainM.c: 70:   TRISA = 0;
   870  0385  1683               	bsf	3,5	;RP0=1, select bank1
   871  0386  1303               	bcf	3,6	;RP1=0, select bank1
   872  0387  0185               	clrf	5	;volatile
   873  0388                     l2258:
   874                           
   875                           ;mainM.c: 72:   INTCONbits.GIE = 1;
   876  0388  178B               	bsf	11,7	;volatile
   877  0389                     l2260:
   878                           
   879                           ;mainM.c: 73:   INTCONbits.PEIE = 1;
   880  0389  170B               	bsf	11,6	;volatile
   881  038A                     l2262:
   882                           
   883                           ;mainM.c: 74:   PIE1bits.RCIE = 1;
   884  038A  168C               	bsf	12,5	;volatile
   885  038B                     l2264:
   886                           
   887                           ;mainM.c: 76:     spiInit(SPI_MASTER_OSC_DIV4, SPI_DATA_SAMPLE_MIDDLE,
   888  038B  1283               	bcf	3,5	;RP0=0, select bank0
   889  038C  1303               	bcf	3,6	;RP1=0, select bank0
   890  038D  01A0               	clrf	spiInit@sDataSample
   891  038E  01A1               	clrf	spiInit@sClockIdle
   892  038F  01A2               	clrf	spiInit@sTransmitEdge
   893  0390  3020               	movlw	32
   894  0391  120A  118A  27DD  120A  118A  	fcall	_spiInit
   895  0396                     l2266:
   896                           
   897                           ;mainM.c: 79:   UARTInit(9600,1);
   898  0396  3000               	movlw	0
   899  0397  1283               	bcf	3,5	;RP0=0, select bank0
   900  0398  1303               	bcf	3,6	;RP1=0, select bank0
   901  0399  00B0               	movwf	UARTInit@baud_rate+3
   902  039A  3000               	movlw	0
   903  039B  00AF               	movwf	UARTInit@baud_rate+2
   904  039C  3025               	movlw	37
   905  039D  00AE               	movwf	UARTInit@baud_rate+1
   906  039E  3080               	movlw	128
   907  039F  00AD               	movwf	UARTInit@baud_rate
   908  03A0  01B1               	clrf	UARTInit@BRGH
   909  03A1  0AB1               	incf	UARTInit@BRGH,f
   910  03A2  120A  118A  26AB  120A  118A  	fcall	_UARTInit
   911  03A7                     l2268:
   912                           
   913                           ;mainM.c: 84:       if(auxiliar == '\n') PORTA = atoi(caracteres);
   914  03A7  300A               	movlw	10
   915  03A8  0676               	xorwf	_auxiliar,w
   916  03A9  1D03               	btfss	3,2
   917  03AA  2BAC               	goto	u3271
   918  03AB  2BAD               	goto	u3270
   919  03AC                     u3271:
   920  03AC  2BB7               	goto	l2272
   921  03AD                     u3270:
   922  03AD                     l2270:
   923  03AD  3061               	movlw	(low (_caracteres| 0))& (0+255)
   924  03AE  120A  118A  25AC  120A  118A  	fcall	_atoi
   925  03B3  1283               	bcf	3,5	;RP0=0, select bank0
   926  03B4  1303               	bcf	3,6	;RP1=0, select bank0
   927  03B5  0824               	movf	?_atoi,w
   928  03B6  0085               	movwf	5	;volatile
   929  03B7                     l2272:
   930                           
   931                           ;mainM.c: 86:     spiWrite('A');
   932  03B7  3041               	movlw	65
   933  03B8  120A  158A  26D3  120A  118A  	fcall	_spiWrite
   934  03BD                     l2274:
   935                           
   936                           ;mainM.c: 87:     valueADC = spiRead();
   937  03BD  120A  158A  26E0  120A  118A  	fcall	_spiRead
   938  03C2  1283               	bcf	3,5	;RP0=0, select bank0
   939  03C3  1303               	bcf	3,6	;RP1=0, select bank0
   940  03C4  00DD               	movwf	??_main
   941  03C5  085D               	movf	??_main,w
   942  03C6  00F9               	movwf	_valueADC
   943  03C7                     l2276:
   944                           
   945                           ;mainM.c: 90:     cadenaADC = adcToString(valueADC);
   946  03C7  0879               	movf	_valueADC,w
   947  03C8  00DD               	movwf	??_main
   948  03C9  01DE               	clrf	??_main+1
   949  03CA  085D               	movf	??_main,w
   950  03CB  00D3               	movwf	adcToString@value
   951  03CC  085E               	movf	??_main+1,w
   952  03CD  00D4               	movwf	adcToString@value+1
   953  03CE  120A  118A  250E  120A  118A  	fcall	_adcToString
   954  03D3  1283               	bcf	3,5	;RP0=0, select bank0
   955  03D4  1303               	bcf	3,6	;RP1=0, select bank0
   956  03D5  00DF               	movwf	??_main+2
   957  03D6  085F               	movf	??_main+2,w
   958  03D7  00F8               	movwf	_cadenaADC
   959  03D8                     l2278:
   960                           
   961                           ;mainM.c: 91:     UARTSendString("POT 1: ",20);
   962  03D8  300C               	movlw	(low ((STR_1-__stringbase)| (0+32768)))& (0+255)
   963  03D9  00A0               	movwf	UARTSendString@str
   964  03DA  3080               	movlw	128
   965  03DB  00A1               	movwf	UARTSendString@str+1
   966  03DC  3014               	movlw	20
   967  03DD  00DD               	movwf	??_main
   968  03DE  085D               	movf	??_main,w
   969  03DF  00A2               	movwf	UARTSendString@max_length
   970  03E0  120A  118A  2786  120A  118A  	fcall	_UARTSendString
   971  03E5                     l2280:
   972                           
   973                           ;mainM.c: 92:     UARTSendString(cadenaADC,20);
   974  03E5  0878               	movf	_cadenaADC,w
   975  03E6  1283               	bcf	3,5	;RP0=0, select bank0
   976  03E7  1303               	bcf	3,6	;RP1=0, select bank0
   977  03E8  00A0               	movwf	UARTSendString@str
   978  03E9  3000               	movlw	0
   979  03EA  00A1               	movwf	UARTSendString@str+1
   980  03EB  3014               	movlw	20
   981  03EC  00DD               	movwf	??_main
   982  03ED  085D               	movf	??_main,w
   983  03EE  00A2               	movwf	UARTSendString@max_length
   984  03EF  120A  118A  2786  120A  118A  	fcall	_UARTSendString
   985  03F4                     l2282:
   986                           
   987                           ;mainM.c: 95:     spiWrite('B');
   988  03F4  3042               	movlw	66
   989  03F5  120A  158A  26D3  120A  118A  	fcall	_spiWrite
   990  03FA                     l2284:
   991                           
   992                           ;mainM.c: 96:     valueADC2 = spiRead();
   993  03FA  120A  158A  26E0  120A  118A  	fcall	_spiRead
   994  03FF  1283               	bcf	3,5	;RP0=0, select bank0
   995  0400  1303               	bcf	3,6	;RP1=0, select bank0
   996  0401  00DD               	movwf	??_main
   997  0402  085D               	movf	??_main,w
   998  0403  00F7               	movwf	_valueADC2
   999  0404                     l2286:
  1000                           
  1001                           ;mainM.c: 98:     cadenaADC = adcToString(valueADC2);
  1002  0404  0877               	movf	_valueADC2,w
  1003  0405  00DD               	movwf	??_main
  1004  0406  01DE               	clrf	??_main+1
  1005  0407  085D               	movf	??_main,w
  1006  0408  00D3               	movwf	adcToString@value
  1007  0409  085E               	movf	??_main+1,w
  1008  040A  00D4               	movwf	adcToString@value+1
  1009  040B  120A  118A  250E  120A  118A  	fcall	_adcToString
  1010  0410  1283               	bcf	3,5	;RP0=0, select bank0
  1011  0411  1303               	bcf	3,6	;RP1=0, select bank0
  1012  0412  00DF               	movwf	??_main+2
  1013  0413  085F               	movf	??_main+2,w
  1014  0414  00F8               	movwf	_cadenaADC
  1015  0415                     l2288:
  1016                           
  1017                           ;mainM.c: 99:     UARTSendString("   POT 2: ",20);
  1018  0415  3001               	movlw	(low ((STR_2-__stringbase)| (0+32768)))& (0+255)
  1019  0416  00A0               	movwf	UARTSendString@str
  1020  0417  3080               	movlw	128
  1021  0418  00A1               	movwf	UARTSendString@str+1
  1022  0419  3014               	movlw	20
  1023  041A  00DD               	movwf	??_main
  1024  041B  085D               	movf	??_main,w
  1025  041C  00A2               	movwf	UARTSendString@max_length
  1026  041D  120A  118A  2786  120A  118A  	fcall	_UARTSendString
  1027  0422                     l2290:
  1028                           
  1029                           ;mainM.c: 100:     UARTSendString(cadenaADC,20);
  1030  0422  0878               	movf	_cadenaADC,w
  1031  0423  1283               	bcf	3,5	;RP0=0, select bank0
  1032  0424  1303               	bcf	3,6	;RP1=0, select bank0
  1033  0425  00A0               	movwf	UARTSendString@str
  1034  0426  3000               	movlw	0
  1035  0427  00A1               	movwf	UARTSendString@str+1
  1036  0428  3014               	movlw	20
  1037  0429  00DD               	movwf	??_main
  1038  042A  085D               	movf	??_main,w
  1039  042B  00A2               	movwf	UARTSendString@max_length
  1040  042C  120A  118A  2786  120A  118A  	fcall	_UARTSendString
  1041  0431                     l2292:
  1042                           
  1043                           ;mainM.c: 101:     UARTSendString("\n",20);
  1044  0431  3014               	movlw	(low ((STR_3-__stringbase)| (0+32768)))& (0+255)
  1045  0432  1283               	bcf	3,5	;RP0=0, select bank0
  1046  0433  1303               	bcf	3,6	;RP1=0, select bank0
  1047  0434  00A0               	movwf	UARTSendString@str
  1048  0435  3080               	movlw	128
  1049  0436  00A1               	movwf	UARTSendString@str+1
  1050  0437  3014               	movlw	20
  1051  0438  00DD               	movwf	??_main
  1052  0439  085D               	movf	??_main,w
  1053  043A  00A2               	movwf	UARTSendString@max_length
  1054  043B  120A  118A  2786  120A  118A  	fcall	_UARTSendString
  1055  0440                     l2294:
  1056                           
  1057                           ;mainM.c: 102:     _delay((unsigned long)((250)*(4000000/4000.0)));
  1058  0440  3002               	movlw	2
  1059  0441  1283               	bcf	3,5	;RP0=0, select bank0
  1060  0442  1303               	bcf	3,6	;RP1=0, select bank0
  1061  0443  00DF               	movwf	??_main+2
  1062  0444  3045               	movlw	69
  1063  0445  00DE               	movwf	??_main+1
  1064  0446  30A9               	movlw	169
  1065  0447  00DD               	movwf	??_main
  1066  0448                     u3287:
  1067  0448  0BDD               	decfsz	??_main,f
  1068  0449  2C48               	goto	u3287
  1069  044A  0BDE               	decfsz	??_main+1,f
  1070  044B  2C48               	goto	u3287
  1071  044C  0BDF               	decfsz	??_main+2,f
  1072  044D  2C48               	goto	u3287
  1073  044E  2BA7               	goto	l2268
  1074  044F  120A  118A  280E   	ljmp	start
  1075  0452                     __end_of_main:
  1076                           
  1077                           	psect	text1
  1078  0ED3                     __ptext1:	
  1079 ;; *************** function _spiWrite *****************
  1080 ;; Defined at:
  1081 ;;		line 34 in file "spi.c"
  1082 ;; Parameters:    Size  Location     Type
  1083 ;;  dat             1    wreg     unsigned char 
  1084 ;; Auto vars:     Size  Location     Type
  1085 ;;  dat             1    4[COMMON] unsigned char 
  1086 ;; Return value:  Size  Location     Type
  1087 ;;                  1    wreg      void 
  1088 ;; Registers used:
  1089 ;;		wreg
  1090 ;; Tracked objects:
  1091 ;;		On entry : 0/0
  1092 ;;		On exit  : 0/0
  1093 ;;		Unchanged: 0/0
  1094 ;; Data sizes:     COMMON   BANK0   BANK1   BANK3   BANK2
  1095 ;;      Params:         0       0       0       0       0
  1096 ;;      Locals:         1       0       0       0       0
  1097 ;;      Temps:          0       0       0       0       0
  1098 ;;      Totals:         1       0       0       0       0
  1099 ;;Total ram usage:        1 bytes
  1100 ;; Hardware stack levels used:    1
  1101 ;; Hardware stack levels required when called:    1
  1102 ;; This function calls:
  1103 ;;		Nothing
  1104 ;; This function is called by:
  1105 ;;		_main
  1106 ;; This function uses a non-reentrant model
  1107 ;;
  1108                           
  1109                           
  1110                           ;psect for function _spiWrite
  1111  0ED3                     _spiWrite:
  1112                           
  1113                           ;incstack = 0
  1114                           ; Regs used in _spiWrite: [wreg]
  1115                           ;spiWrite@dat stored from wreg
  1116  0ED3  00F4               	movwf	spiWrite@dat
  1117  0ED4                     l1706:
  1118                           
  1119                           ;spi.c: 34: void spiWrite(char dat);spi.c: 35: {;spi.c: 36:     SSPBUF = dat;
  1120  0ED4  0874               	movf	spiWrite@dat,w
  1121  0ED5  1283               	bcf	3,5	;RP0=0, select bank0
  1122  0ED6  1303               	bcf	3,6	;RP1=0, select bank0
  1123  0ED7  0093               	movwf	19	;volatile
  1124  0ED8                     l77:
  1125  0ED8  0008               	return
  1126  0ED9                     __end_of_spiWrite:
  1127                           
  1128                           	psect	text2
  1129  0EE0                     __ptext2:	
  1130 ;; *************** function _spiRead *****************
  1131 ;; Defined at:
  1132 ;;		line 47 in file "spi.c"
  1133 ;; Parameters:    Size  Location     Type
  1134 ;;		None
  1135 ;; Auto vars:     Size  Location     Type
  1136 ;;		None
  1137 ;; Return value:  Size  Location     Type
  1138 ;;                  1    wreg      unsigned char 
  1139 ;; Registers used:
  1140 ;;		wreg, status,2, status,0, pclath, cstack
  1141 ;; Tracked objects:
  1142 ;;		On entry : 0/0
  1143 ;;		On exit  : 0/0
  1144 ;;		Unchanged: 0/0
  1145 ;; Data sizes:     COMMON   BANK0   BANK1   BANK3   BANK2
  1146 ;;      Params:         0       0       0       0       0
  1147 ;;      Locals:         0       0       0       0       0
  1148 ;;      Temps:          0       0       0       0       0
  1149 ;;      Totals:         0       0       0       0       0
  1150 ;;Total ram usage:        0 bytes
  1151 ;; Hardware stack levels used:    1
  1152 ;; Hardware stack levels required when called:    2
  1153 ;; This function calls:
  1154 ;;		_spiReceiveWait
  1155 ;; This function is called by:
  1156 ;;		_main
  1157 ;; This function uses a non-reentrant model
  1158 ;;
  1159                           
  1160                           
  1161                           ;psect for function _spiRead
  1162  0EE0                     _spiRead:
  1163  0EE0                     l1708:	
  1164                           ;incstack = 0
  1165                           ; Regs used in _spiRead: [wreg+status,2+status,0+pclath+cstack]
  1166                           
  1167                           
  1168                           ;spi.c: 49:     spiReceiveWait();
  1169  0EE0  120A  158A  26D9  120A  158A  	fcall	_spiReceiveWait
  1170  0EE5                     l1710:
  1171                           
  1172                           ;spi.c: 50:     return(SSPBUF);
  1173  0EE5  1283               	bcf	3,5	;RP0=0, select bank0
  1174  0EE6  1303               	bcf	3,6	;RP1=0, select bank0
  1175  0EE7  0813               	movf	19,w	;volatile
  1176  0EE8                     l85:
  1177  0EE8  0008               	return
  1178  0EE9                     __end_of_spiRead:
  1179                           
  1180                           	psect	text3
  1181  0ED9                     __ptext3:	
  1182 ;; *************** function _spiReceiveWait *****************
  1183 ;; Defined at:
  1184 ;;		line 29 in file "spi.c"
  1185 ;; Parameters:    Size  Location     Type
  1186 ;;		None
  1187 ;; Auto vars:     Size  Location     Type
  1188 ;;		None
  1189 ;; Return value:  Size  Location     Type
  1190 ;;                  1    wreg      void 
  1191 ;; Registers used:
  1192 ;;		None
  1193 ;; Tracked objects:
  1194 ;;		On entry : 0/0
  1195 ;;		On exit  : 0/0
  1196 ;;		Unchanged: 0/0
  1197 ;; Data sizes:     COMMON   BANK0   BANK1   BANK3   BANK2
  1198 ;;      Params:         0       0       0       0       0
  1199 ;;      Locals:         0       0       0       0       0
  1200 ;;      Temps:          0       0       0       0       0
  1201 ;;      Totals:         0       0       0       0       0
  1202 ;;Total ram usage:        0 bytes
  1203 ;; Hardware stack levels used:    1
  1204 ;; Hardware stack levels required when called:    1
  1205 ;; This function calls:
  1206 ;;		Nothing
  1207 ;; This function is called by:
  1208 ;;		_spiRead
  1209 ;; This function uses a non-reentrant model
  1210 ;;
  1211                           
  1212                           
  1213                           ;psect for function _spiReceiveWait
  1214  0ED9                     _spiReceiveWait:
  1215  0ED9                     l1336:	
  1216                           ;incstack = 0
  1217                           ; Regs used in _spiReceiveWait: []
  1218                           
  1219  0ED9                     l71:	
  1220                           ;spi.c: 31:     while ( !SSPSTATbits.BF );
  1221                           
  1222  0ED9  1683               	bsf	3,5	;RP0=1, select bank1
  1223  0EDA  1303               	bcf	3,6	;RP1=0, select bank1
  1224  0EDB  1C14               	btfss	20,0	;volatile
  1225  0EDC  2EDE               	goto	u1191
  1226  0EDD  2EDF               	goto	u1190
  1227  0EDE                     u1191:
  1228  0EDE  2ED9               	goto	l71
  1229  0EDF                     u1190:
  1230  0EDF                     l74:
  1231  0EDF  0008               	return
  1232  0EE0                     __end_of_spiReceiveWait:
  1233                           
  1234                           	psect	text4
  1235  07DD                     __ptext4:	
  1236 ;; *************** function _spiInit *****************
  1237 ;; Defined at:
  1238 ;;		line 12 in file "spi.c"
  1239 ;; Parameters:    Size  Location     Type
  1240 ;;  sType           1    wreg     enum E1264
  1241 ;;  sDataSample     1    0[BANK0 ] enum E1272
  1242 ;;  sClockIdle      1    1[BANK0 ] enum E1276
  1243 ;;  sTransmitEdg    1    2[BANK0 ] enum E1280
  1244 ;; Auto vars:     Size  Location     Type
  1245 ;;  sType           1    4[COMMON] enum E1264
  1246 ;; Return value:  Size  Location     Type
  1247 ;;                  1    wreg      void 
  1248 ;; Registers used:
  1249 ;;		wreg, status,2, status,0
  1250 ;; Tracked objects:
  1251 ;;		On entry : 0/0
  1252 ;;		On exit  : 0/0
  1253 ;;		Unchanged: 0/0
  1254 ;; Data sizes:     COMMON   BANK0   BANK1   BANK3   BANK2
  1255 ;;      Params:         0       3       0       0       0
  1256 ;;      Locals:         1       0       0       0       0
  1257 ;;      Temps:          0       0       0       0       0
  1258 ;;      Totals:         1       3       0       0       0
  1259 ;;Total ram usage:        4 bytes
  1260 ;; Hardware stack levels used:    1
  1261 ;; Hardware stack levels required when called:    1
  1262 ;; This function calls:
  1263 ;;		Nothing
  1264 ;; This function is called by:
  1265 ;;		_main
  1266 ;; This function uses a non-reentrant model
  1267 ;;
  1268                           
  1269                           
  1270                           ;psect for function _spiInit
  1271  07DD                     _spiInit:
  1272                           
  1273                           ;incstack = 0
  1274                           ; Regs used in _spiInit: [wreg+status,2+status,0]
  1275                           ;spiInit@sType stored from wreg
  1276  07DD  00F4               	movwf	spiInit@sType
  1277  07DE                     l2188:
  1278                           
  1279                           ;spi.c: 12: void spiInit(Spi_Type sType, Spi_Data_Sample sDataSample, Spi_Clock_Idle sCl
      +                          ockIdle, Spi_Transmit_Edge sTransmitEdge);spi.c: 13: {;spi.c: 14:     TRISC5 = 0;
  1280  07DE  1683               	bsf	3,5	;RP0=1, select bank1
  1281  07DF  1303               	bcf	3,6	;RP1=0, select bank1
  1282  07E0  1287               	bcf	7,5	;volatile
  1283                           
  1284                           ;spi.c: 15:     if(sType & 0b00000100)
  1285  07E1  1D74               	btfss	spiInit@sType,2
  1286  07E2  2FE4               	goto	u3201
  1287  07E3  2FE5               	goto	u3200
  1288  07E4                     u3201:
  1289  07E4  2FED               	goto	l2194
  1290  07E5                     u3200:
  1291  07E5                     l2190:
  1292                           
  1293                           ;spi.c: 16:     {;spi.c: 17:         SSPSTAT = sTransmitEdge;
  1294  07E5  1283               	bcf	3,5	;RP0=0, select bank0
  1295  07E6  1303               	bcf	3,6	;RP1=0, select bank0
  1296  07E7  0822               	movf	spiInit@sTransmitEdge,w
  1297  07E8  1683               	bsf	3,5	;RP0=1, select bank1
  1298  07E9  1303               	bcf	3,6	;RP1=0, select bank1
  1299  07EA  0094               	movwf	20	;volatile
  1300  07EB                     l2192:
  1301                           
  1302                           ;spi.c: 18:         TRISC3 = 1;
  1303  07EB  1587               	bsf	7,3	;volatile
  1304                           
  1305                           ;spi.c: 19:     }
  1306  07EC  2FF5               	goto	l67
  1307  07ED                     l2194:
  1308                           
  1309                           ;spi.c: 21:     {;spi.c: 22:         SSPSTAT = sDataSample | sTransmitEdge;
  1310  07ED  1283               	bcf	3,5	;RP0=0, select bank0
  1311  07EE  1303               	bcf	3,6	;RP1=0, select bank0
  1312  07EF  0820               	movf	spiInit@sDataSample,w
  1313  07F0  0422               	iorwf	spiInit@sTransmitEdge,w
  1314  07F1  1683               	bsf	3,5	;RP0=1, select bank1
  1315  07F2  1303               	bcf	3,6	;RP1=0, select bank1
  1316  07F3  0094               	movwf	20	;volatile
  1317  07F4                     l2196:
  1318                           
  1319                           ;spi.c: 23:         TRISC3 = 0;
  1320  07F4  1187               	bcf	7,3	;volatile
  1321  07F5                     l67:	
  1322                           ;spi.c: 24:     }
  1323                           
  1324                           
  1325                           ;spi.c: 26:     SSPCON = sType | sClockIdle;
  1326  07F5  0874               	movf	spiInit@sType,w
  1327  07F6  1283               	bcf	3,5	;RP0=0, select bank0
  1328  07F7  1303               	bcf	3,6	;RP1=0, select bank0
  1329  07F8  0421               	iorwf	spiInit@sClockIdle,w
  1330  07F9  0094               	movwf	20	;volatile
  1331  07FA                     l68:
  1332  07FA  0008               	return
  1333  07FB                     __end_of_spiInit:
  1334                           
  1335                           	psect	text5
  1336  05AC                     __ptext5:	
  1337 ;; *************** function _atoi *****************
  1338 ;; Defined at:
  1339 ;;		line 5 in file "C:\Program Files\Microchip\xc8\v2.31\pic\sources\c90\common\atoi.c"
  1340 ;; Parameters:    Size  Location     Type
  1341 ;;  s               1    wreg     PTR const unsigned char 
  1342 ;;		 -> caracteres(4), 
  1343 ;; Auto vars:     Size  Location     Type
  1344 ;;  s               1   11[BANK0 ] PTR const unsigned char 
  1345 ;;		 -> caracteres(4), 
  1346 ;;  a               2    9[BANK0 ] int 
  1347 ;;  sign            1    8[BANK0 ] unsigned char 
  1348 ;; Return value:  Size  Location     Type
  1349 ;;                  2    4[BANK0 ] int 
  1350 ;; Registers used:
  1351 ;;		wreg, fsr0l, fsr0h, status,2, status,0, pclath, cstack
  1352 ;; Tracked objects:
  1353 ;;		On entry : 0/0
  1354 ;;		On exit  : 0/0
  1355 ;;		Unchanged: 0/0
  1356 ;; Data sizes:     COMMON   BANK0   BANK1   BANK3   BANK2
  1357 ;;      Params:         0       2       0       0       0
  1358 ;;      Locals:         0       4       0       0       0
  1359 ;;      Temps:          0       2       0       0       0
  1360 ;;      Totals:         0       8       0       0       0
  1361 ;;Total ram usage:        8 bytes
  1362 ;; Hardware stack levels used:    1
  1363 ;; Hardware stack levels required when called:    2
  1364 ;; This function calls:
  1365 ;;		___wmul
  1366 ;;		_isdigit
  1367 ;; This function is called by:
  1368 ;;		_main
  1369 ;; This function uses a non-reentrant model
  1370 ;;
  1371                           
  1372                           
  1373                           ;psect for function _atoi
  1374  05AC                     _atoi:
  1375                           
  1376                           ;incstack = 0
  1377                           ; Regs used in _atoi: [wreg-fsr0h+status,2+status,0+pclath+cstack]
  1378                           ;atoi@s stored from wreg
  1379  05AC  1283               	bcf	3,5	;RP0=0, select bank0
  1380  05AD  1303               	bcf	3,6	;RP1=0, select bank0
  1381  05AE  00AB               	movwf	atoi@s
  1382  05AF                     l2198:
  1383  05AF  2DB4               	goto	l2202
  1384  05B0                     l2200:
  1385  05B0  3001               	movlw	1
  1386  05B1  00A6               	movwf	??_atoi
  1387  05B2  0826               	movf	??_atoi,w
  1388  05B3  07AB               	addwf	atoi@s,f
  1389  05B4                     l2202:
  1390  05B4  082B               	movf	atoi@s,w
  1391  05B5  0084               	movwf	4
  1392  05B6  3020               	movlw	32
  1393  05B7  1383               	bcf	3,7	;select IRP bank0
  1394  05B8  0600               	xorwf	0,w
  1395  05B9  1903               	btfsc	3,2
  1396  05BA  2DBC               	goto	u3211
  1397  05BB  2DBD               	goto	u3210
  1398  05BC                     u3211:
  1399  05BC  2DB0               	goto	l2200
  1400  05BD                     u3210:
  1401  05BD                     l2204:
  1402  05BD  082B               	movf	atoi@s,w
  1403  05BE  0084               	movwf	4
  1404  05BF  3009               	movlw	9
  1405  05C0  0600               	xorwf	0,w
  1406  05C1  1903               	btfsc	3,2
  1407  05C2  2DC4               	goto	u3221
  1408  05C3  2DC5               	goto	u3220
  1409  05C4                     u3221:
  1410  05C4  2DB0               	goto	l2200
  1411  05C5                     u3220:
  1412  05C5                     l2206:
  1413  05C5  01A9               	clrf	atoi@a
  1414  05C6  01AA               	clrf	atoi@a+1
  1415  05C7  01A8               	clrf	atoi@sign
  1416  05C8                     l2208:
  1417  05C8  082B               	movf	atoi@s,w
  1418  05C9  0084               	movwf	4
  1419  05CA  302D               	movlw	45
  1420  05CB  0600               	xorwf	0,w
  1421  05CC  1D03               	btfss	3,2
  1422  05CD  2DCF               	goto	u3231
  1423  05CE  2DD0               	goto	u3230
  1424  05CF                     u3231:
  1425  05CF  2DD9               	goto	l2212
  1426  05D0                     u3230:
  1427  05D0                     l2210:
  1428  05D0  3001               	movlw	1
  1429  05D1  00A6               	movwf	??_atoi
  1430  05D2  0826               	movf	??_atoi,w
  1431  05D3  07A8               	addwf	atoi@sign,f
  1432  05D4  3001               	movlw	1
  1433  05D5  00A6               	movwf	??_atoi
  1434  05D6  0826               	movf	??_atoi,w
  1435  05D7  07AB               	addwf	atoi@s,f
  1436  05D8  2E0B               	goto	l2220
  1437  05D9                     l2212:
  1438  05D9  082B               	movf	atoi@s,w
  1439  05DA  0084               	movwf	4
  1440  05DB  302B               	movlw	43
  1441  05DC  0600               	xorwf	0,w
  1442  05DD  1D03               	btfss	3,2
  1443  05DE  2DE0               	goto	u3241
  1444  05DF  2DE1               	goto	u3240
  1445  05E0                     u3241:
  1446  05E0  2E0B               	goto	l2220
  1447  05E1                     u3240:
  1448  05E1                     l2214:
  1449  05E1  3001               	movlw	1
  1450  05E2  00A6               	movwf	??_atoi
  1451  05E3  0826               	movf	??_atoi,w
  1452  05E4  07AB               	addwf	atoi@s,f
  1453  05E5  2E0B               	goto	l2220
  1454  05E6                     l2216:
  1455  05E6  1283               	bcf	3,5	;RP0=0, select bank0
  1456  05E7  1303               	bcf	3,6	;RP1=0, select bank0
  1457  05E8  082B               	movf	atoi@s,w
  1458  05E9  0084               	movwf	4
  1459  05EA  082A               	movf	atoi@a+1,w
  1460  05EB  00A1               	movwf	___wmul@multiplier+1
  1461  05EC  0829               	movf	atoi@a,w
  1462  05ED  00A0               	movwf	___wmul@multiplier
  1463  05EE  300A               	movlw	10
  1464  05EF  00A2               	movwf	___wmul@multiplicand
  1465  05F0  3000               	movlw	0
  1466  05F1  00A3               	movwf	___wmul@multiplicand+1
  1467  05F2  120A  158A  272E  120A  118A  	fcall	___wmul
  1468  05F7  1383               	bcf	3,7	;select IRP bank0
  1469  05F8  0800               	movf	0,w
  1470  05F9  1283               	bcf	3,5	;RP0=0, select bank0
  1471  05FA  1303               	bcf	3,6	;RP1=0, select bank0
  1472  05FB  0720               	addwf	?___wmul,w
  1473  05FC  00A6               	movwf	??_atoi
  1474  05FD  3000               	movlw	0
  1475  05FE  1803               	skipnc
  1476  05FF  3001               	movlw	1
  1477  0600  0721               	addwf	?___wmul+1,w
  1478  0601  00A7               	movwf	??_atoi+1
  1479  0602  0826               	movf	??_atoi,w
  1480  0603  3ED0               	addlw	208
  1481  0604  00A9               	movwf	atoi@a
  1482  0605  0827               	movf	??_atoi+1,w
  1483  0606  1803               	skipnc
  1484  0607  3E01               	addlw	1
  1485  0608  3EFF               	addlw	255
  1486  0609  00AA               	movwf	atoi@a+1
  1487  060A  2DE1               	goto	l2214
  1488  060B                     l2220:
  1489  060B  082B               	movf	atoi@s,w
  1490  060C  0084               	movwf	4
  1491  060D  0800               	movf	0,w
  1492  060E  120A  158A  26F5  120A  118A  	fcall	_isdigit
  1493  0613  1803               	btfsc	3,0
  1494  0614  2E16               	goto	u3251
  1495  0615  2E17               	goto	u3250
  1496  0616                     u3251:
  1497  0616  2DE6               	goto	l2216
  1498  0617                     u3250:
  1499  0617                     l2222:
  1500  0617  1283               	bcf	3,5	;RP0=0, select bank0
  1501  0618  1303               	bcf	3,6	;RP1=0, select bank0
  1502  0619  0828               	movf	atoi@sign,w
  1503  061A  1903               	btfsc	3,2
  1504  061B  2E1D               	goto	u3261
  1505  061C  2E1E               	goto	u3260
  1506  061D                     u3261:
  1507  061D  2E2A               	goto	l2228
  1508  061E                     u3260:
  1509  061E                     l2224:
  1510  061E  0929               	comf	atoi@a,w
  1511  061F  00A6               	movwf	??_atoi
  1512  0620  092A               	comf	atoi@a+1,w
  1513  0621  00A7               	movwf	??_atoi+1
  1514  0622  0AA6               	incf	??_atoi,f
  1515  0623  1903               	skipnz
  1516  0624  0AA7               	incf	??_atoi+1,f
  1517  0625  0826               	movf	??_atoi,w
  1518  0626  00A4               	movwf	?_atoi
  1519  0627  0827               	movf	??_atoi+1,w
  1520  0628  00A5               	movwf	?_atoi+1
  1521  0629  2E2E               	goto	l701
  1522  062A                     l2228:
  1523  062A  082A               	movf	atoi@a+1,w
  1524  062B  00A5               	movwf	?_atoi+1
  1525  062C  0829               	movf	atoi@a,w
  1526  062D  00A4               	movwf	?_atoi
  1527  062E                     l701:
  1528  062E  0008               	return
  1529  062F                     __end_of_atoi:
  1530                           
  1531                           	psect	text6
  1532  0EF5                     __ptext6:	
  1533 ;; *************** function _isdigit *****************
  1534 ;; Defined at:
  1535 ;;		line 8 in file "C:\Program Files\Microchip\xc8\v2.31\pic\sources\c90\common\isdigit.c"
  1536 ;; Parameters:    Size  Location     Type
  1537 ;;  c               1    wreg     unsigned char 
  1538 ;; Auto vars:     Size  Location     Type
  1539 ;;  c               1    5[COMMON] unsigned char 
  1540 ;; Return value:  Size  Location     Type
  1541 ;;		None               void
  1542 ;; Registers used:
  1543 ;;		wreg, status,2, status,0
  1544 ;; Tracked objects:
  1545 ;;		On entry : 0/0
  1546 ;;		On exit  : 0/0
  1547 ;;		Unchanged: 0/0
  1548 ;; Data sizes:     COMMON   BANK0   BANK1   BANK3   BANK2
  1549 ;;      Params:         0       0       0       0       0
  1550 ;;      Locals:         2       0       0       0       0
  1551 ;;      Temps:          0       0       0       0       0
  1552 ;;      Totals:         2       0       0       0       0
  1553 ;;Total ram usage:        2 bytes
  1554 ;; Hardware stack levels used:    1
  1555 ;; Hardware stack levels required when called:    1
  1556 ;; This function calls:
  1557 ;;		Nothing
  1558 ;; This function is called by:
  1559 ;;		_atoi
  1560 ;; This function uses a non-reentrant model
  1561 ;;
  1562                           
  1563                           
  1564                           ;psect for function _isdigit
  1565  0EF5                     _isdigit:
  1566                           
  1567                           ;incstack = 0
  1568                           ; Regs used in _isdigit: [wreg+status,2+status,0]
  1569                           ;isdigit@c stored from wreg
  1570  0EF5  00F5               	movwf	isdigit@c
  1571  0EF6                     l1644:
  1572  0EF6  01F4               	clrf	_isdigit$909
  1573  0EF7                     l1646:
  1574  0EF7  303A               	movlw	58
  1575  0EF8  0275               	subwf	isdigit@c,w
  1576  0EF9  1803               	skipnc
  1577  0EFA  2EFC               	goto	u2051
  1578  0EFB  2EFD               	goto	u2050
  1579  0EFC                     u2051:
  1580  0EFC  2F05               	goto	l1652
  1581  0EFD                     u2050:
  1582  0EFD                     l1648:
  1583  0EFD  3030               	movlw	48
  1584  0EFE  0275               	subwf	isdigit@c,w
  1585  0EFF  1C03               	skipc
  1586  0F00  2F02               	goto	u2061
  1587  0F01  2F03               	goto	u2060
  1588  0F02                     u2061:
  1589  0F02  2F05               	goto	l1652
  1590  0F03                     u2060:
  1591  0F03                     l1650:
  1592  0F03  01F4               	clrf	_isdigit$909
  1593  0F04  0AF4               	incf	_isdigit$909,f
  1594  0F05                     l1652:
  1595  0F05  0C74               	rrf	_isdigit$909,w
  1596  0F06                     l706:
  1597  0F06  0008               	return
  1598  0F07                     __end_of_isdigit:
  1599                           
  1600                           	psect	text7
  1601  050E                     __ptext7:	
  1602 ;; *************** function _adcToString *****************
  1603 ;; Defined at:
  1604 ;;		line 111 in file "mainM.c"
  1605 ;; Parameters:    Size  Location     Type
  1606 ;;  value           2   51[BANK0 ] unsigned int 
  1607 ;; Auto vars:     Size  Location     Type
  1608 ;;  salida          5   54[BANK0 ] unsigned char [5]
  1609 ;;  digito          2   59[BANK0 ] unsigned int 
  1610 ;; Return value:  Size  Location     Type
  1611 ;;                  1    wreg      PTR unsigned char 
  1612 ;; Registers used:
  1613 ;;		wreg, status,2, status,0, btemp+1, pclath, cstack
  1614 ;; Tracked objects:
  1615 ;;		On entry : 0/0
  1616 ;;		On exit  : 0/0
  1617 ;;		Unchanged: 0/0
  1618 ;; Data sizes:     COMMON   BANK0   BANK1   BANK3   BANK2
  1619 ;;      Params:         0       2       0       0       0
  1620 ;;      Locals:         0       7       0       0       0
  1621 ;;      Temps:          0       1       0       0       0
  1622 ;;      Totals:         0      10       0       0       0
  1623 ;;Total ram usage:       10 bytes
  1624 ;; Hardware stack levels used:    1
  1625 ;; Hardware stack levels required when called:    3
  1626 ;; This function calls:
  1627 ;;		___flmul
  1628 ;;		___fltol
  1629 ;;		___lwdiv
  1630 ;;		___lwmod
  1631 ;;		___wmul
  1632 ;;		___xxtofl
  1633 ;; This function is called by:
  1634 ;;		_main
  1635 ;; This function uses a non-reentrant model
  1636 ;;
  1637                           
  1638                           
  1639                           ;psect for function _adcToString
  1640  050E                     _adcToString:
  1641  050E                     l2232:	
  1642                           ;incstack = 0
  1643                           ; Regs used in _adcToString: [wreg+status,2+status,0+btemp+1+pclath+cstack]
  1644                           
  1645                           
  1646                           ;mainM.c: 112:     char salida[5];;mainM.c: 113:     uint16_t digito;;mainM.c: 115:     
      +                          value = value*1.96;
  1647  050E  1283               	bcf	3,5	;RP0=0, select bank0
  1648  050F  1303               	bcf	3,6	;RP1=0, select bank0
  1649  0510  0853               	movf	adcToString@value,w
  1650  0511  00A0               	movwf	___xxtofl@val
  1651  0512  0854               	movf	adcToString@value+1,w
  1652  0513  00A1               	movwf	___xxtofl@val+1
  1653  0514  01A2               	clrf	___xxtofl@val+2
  1654  0515  01A3               	clrf	___xxtofl@val+3
  1655  0516  3000               	movlw	0
  1656  0517  120A  118A  2452  120A  118A  	fcall	___xxtofl
  1657  051C  1283               	bcf	3,5	;RP0=0, select bank0
  1658  051D  1303               	bcf	3,6	;RP1=0, select bank0
  1659  051E  0823               	movf	?___xxtofl+3,w
  1660  051F  00B5               	movwf	___flmul@a+3
  1661  0520  0822               	movf	?___xxtofl+2,w
  1662  0521  00B4               	movwf	___flmul@a+2
  1663  0522  0821               	movf	?___xxtofl+1,w
  1664  0523  00B3               	movwf	___flmul@a+1
  1665  0524  0820               	movf	?___xxtofl,w
  1666  0525  00B2               	movwf	___flmul@a
  1667  0526  303F               	movlw	63
  1668  0527  00B1               	movwf	___flmul@b+3
  1669  0528  30FA               	movlw	250
  1670  0529  00B0               	movwf	___flmul@b+2
  1671  052A  30E1               	movlw	225
  1672  052B  00AF               	movwf	___flmul@b+1
  1673  052C  3048               	movlw	72
  1674  052D  00AE               	movwf	___flmul@b
  1675  052E  120A  118A  2020  120A  118A  	fcall	___flmul
  1676  0533  1283               	bcf	3,5	;RP0=0, select bank0
  1677  0534  1303               	bcf	3,6	;RP1=0, select bank0
  1678  0535  0831               	movf	?___flmul+3,w
  1679  0536  00CB               	movwf	___fltol@f1+3
  1680  0537  0830               	movf	?___flmul+2,w
  1681  0538  00CA               	movwf	___fltol@f1+2
  1682  0539  082F               	movf	?___flmul+1,w
  1683  053A  00C9               	movwf	___fltol@f1+1
  1684  053B  082E               	movf	?___flmul,w
  1685  053C  00C8               	movwf	___fltol@f1
  1686  053D  120A  118A  262F  120A  118A  	fcall	___fltol
  1687  0542  1283               	bcf	3,5	;RP0=0, select bank0
  1688  0543  1303               	bcf	3,6	;RP1=0, select bank0
  1689  0544  0849               	movf	?___fltol+1,w
  1690  0545  00D4               	movwf	adcToString@value+1
  1691  0546  0848               	movf	?___fltol,w
  1692  0547  00D3               	movwf	adcToString@value
  1693  0548                     l2234:
  1694                           
  1695                           ;mainM.c: 116:     digito = value/100 ;
  1696  0548  3064               	movlw	100
  1697  0549  00A0               	movwf	___lwdiv@divisor
  1698  054A  3000               	movlw	0
  1699  054B  00A1               	movwf	___lwdiv@divisor+1
  1700  054C  0854               	movf	adcToString@value+1,w
  1701  054D  00A3               	movwf	___lwdiv@dividend+1
  1702  054E  0853               	movf	adcToString@value,w
  1703  054F  00A2               	movwf	___lwdiv@dividend
  1704  0550  120A  158A  27BA  120A  118A  	fcall	___lwdiv
  1705  0555  1283               	bcf	3,5	;RP0=0, select bank0
  1706  0556  1303               	bcf	3,6	;RP1=0, select bank0
  1707  0557  0821               	movf	?___lwdiv+1,w
  1708  0558  00DC               	movwf	adcToString@digito+1
  1709  0559  0820               	movf	?___lwdiv,w
  1710  055A  00DB               	movwf	adcToString@digito
  1711  055B                     l2236:
  1712                           
  1713                           ;mainM.c: 118:     salida[0] = digito + 48;
  1714  055B  085B               	movf	adcToString@digito,w
  1715  055C  3E30               	addlw	48
  1716  055D  00D5               	movwf	??_adcToString
  1717  055E  0855               	movf	??_adcToString,w
  1718  055F  00D6               	movwf	adcToString@salida
  1719  0560                     l2238:
  1720                           
  1721                           ;mainM.c: 119:     salida[1] = '.';
  1722  0560  302E               	movlw	46
  1723  0561  00D5               	movwf	??_adcToString
  1724  0562  0855               	movf	??_adcToString,w
  1725  0563  00D7               	movwf	adcToString@salida+1
  1726  0564                     l2240:
  1727                           
  1728                           ;mainM.c: 120:     value -= digito*100;
  1729  0564  085C               	movf	adcToString@digito+1,w
  1730  0565  00A1               	movwf	___wmul@multiplier+1
  1731  0566  085B               	movf	adcToString@digito,w
  1732  0567  00A0               	movwf	___wmul@multiplier
  1733  0568  3064               	movlw	100
  1734  0569  00A2               	movwf	___wmul@multiplicand
  1735  056A  3000               	movlw	0
  1736  056B  00A3               	movwf	___wmul@multiplicand+1
  1737  056C  120A  158A  272E  120A  118A  	fcall	___wmul
  1738  0571  1283               	bcf	3,5	;RP0=0, select bank0
  1739  0572  1303               	bcf	3,6	;RP1=0, select bank0
  1740  0573  0820               	movf	?___wmul,w
  1741  0574  02D3               	subwf	adcToString@value,f
  1742  0575  0821               	movf	?___wmul+1,w
  1743  0576  1C03               	skipc
  1744  0577  03D4               	decf	adcToString@value+1,f
  1745  0578  02D4               	subwf	adcToString@value+1,f
  1746  0579                     l2242:
  1747                           
  1748                           ;mainM.c: 122:     digito = value/10;
  1749  0579  300A               	movlw	10
  1750  057A  00A0               	movwf	___lwdiv@divisor
  1751  057B  3000               	movlw	0
  1752  057C  00A1               	movwf	___lwdiv@divisor+1
  1753  057D  0854               	movf	adcToString@value+1,w
  1754  057E  00A3               	movwf	___lwdiv@dividend+1
  1755  057F  0853               	movf	adcToString@value,w
  1756  0580  00A2               	movwf	___lwdiv@dividend
  1757  0581  120A  158A  27BA  120A  118A  	fcall	___lwdiv
  1758  0586  1283               	bcf	3,5	;RP0=0, select bank0
  1759  0587  1303               	bcf	3,6	;RP1=0, select bank0
  1760  0588  0821               	movf	?___lwdiv+1,w
  1761  0589  00DC               	movwf	adcToString@digito+1
  1762  058A  0820               	movf	?___lwdiv,w
  1763  058B  00DB               	movwf	adcToString@digito
  1764  058C                     l2244:
  1765                           
  1766                           ;mainM.c: 123:     salida[2] = digito +48;
  1767  058C  085B               	movf	adcToString@digito,w
  1768  058D  3E30               	addlw	48
  1769  058E  00D5               	movwf	??_adcToString
  1770  058F  0855               	movf	??_adcToString,w
  1771  0590  00D8               	movwf	adcToString@salida+2
  1772  0591                     l2246:
  1773                           
  1774                           ;mainM.c: 124:     digito = value % 10;
  1775  0591  300A               	movlw	10
  1776  0592  00A0               	movwf	___lwmod@divisor
  1777  0593  3000               	movlw	0
  1778  0594  00A1               	movwf	___lwmod@divisor+1
  1779  0595  0854               	movf	adcToString@value+1,w
  1780  0596  00A3               	movwf	___lwmod@dividend+1
  1781  0597  0853               	movf	adcToString@value,w
  1782  0598  00A2               	movwf	___lwmod@dividend
  1783  0599  120A  158A  277E  120A  118A  	fcall	___lwmod
  1784  059E  1283               	bcf	3,5	;RP0=0, select bank0
  1785  059F  1303               	bcf	3,6	;RP1=0, select bank0
  1786  05A0  0821               	movf	?___lwmod+1,w
  1787  05A1  00DC               	movwf	adcToString@digito+1
  1788  05A2  0820               	movf	?___lwmod,w
  1789  05A3  00DB               	movwf	adcToString@digito
  1790  05A4                     l2248:
  1791                           
  1792                           ;mainM.c: 125:     salida[3] = digito +48;
  1793  05A4  085B               	movf	adcToString@digito,w
  1794  05A5  3E30               	addlw	48
  1795  05A6  00D5               	movwf	??_adcToString
  1796  05A7  0855               	movf	??_adcToString,w
  1797  05A8  00D9               	movwf	adcToString@salida+3
  1798  05A9                     l2250:
  1799                           
  1800                           ;mainM.c: 126:     salida[4] = '\0';
  1801  05A9  01DA               	clrf	adcToString@salida+4
  1802  05AA                     l2252:
  1803                           
  1804                           ;mainM.c: 127:     return salida;
  1805  05AA  3056               	movlw	(low (adcToString@salida| 0))& (0+255)
  1806  05AB                     l149:
  1807  05AB  0008               	return
  1808  05AC                     __end_of_adcToString:
  1809                           
  1810                           	psect	text8
  1811  0452                     __ptext8:	
  1812 ;; *************** function ___xxtofl *****************
  1813 ;; Defined at:
  1814 ;;		line 10 in file "C:\Program Files\Microchip\xc8\v2.31\pic\sources\c90\common\xxtofl.c"
  1815 ;; Parameters:    Size  Location     Type
  1816 ;;  sign            1    wreg     unsigned char 
  1817 ;;  val             4    0[BANK0 ] long 
  1818 ;; Auto vars:     Size  Location     Type
  1819 ;;  sign            1    8[BANK0 ] unsigned char 
  1820 ;;  arg             4   10[BANK0 ] unsigned long 
  1821 ;;  exp             1    9[BANK0 ] unsigned char 
  1822 ;; Return value:  Size  Location     Type
  1823 ;;                  4    0[BANK0 ] unsigned char 
  1824 ;; Registers used:
  1825 ;;		wreg, status,2, status,0
  1826 ;; Tracked objects:
  1827 ;;		On entry : 0/0
  1828 ;;		On exit  : 0/0
  1829 ;;		Unchanged: 0/0
  1830 ;; Data sizes:     COMMON   BANK0   BANK1   BANK3   BANK2
  1831 ;;      Params:         0       4       0       0       0
  1832 ;;      Locals:         0       6       0       0       0
  1833 ;;      Temps:          0       4       0       0       0
  1834 ;;      Totals:         0      14       0       0       0
  1835 ;;Total ram usage:       14 bytes
  1836 ;; Hardware stack levels used:    1
  1837 ;; Hardware stack levels required when called:    1
  1838 ;; This function calls:
  1839 ;;		Nothing
  1840 ;; This function is called by:
  1841 ;;		_adcToString
  1842 ;; This function uses a non-reentrant model
  1843 ;;
  1844                           
  1845                           
  1846                           ;psect for function ___xxtofl
  1847  0452                     ___xxtofl:
  1848                           
  1849                           ;incstack = 0
  1850                           ; Regs used in ___xxtofl: [wreg+status,2+status,0]
  1851                           ;___xxtofl@sign stored from wreg
  1852  0452  1283               	bcf	3,5	;RP0=0, select bank0
  1853  0453  1303               	bcf	3,6	;RP1=0, select bank0
  1854  0454  00A8               	movwf	___xxtofl@sign
  1855  0455                     l2104:
  1856  0455  0828               	movf	___xxtofl@sign,w
  1857  0456  1903               	btfsc	3,2
  1858  0457  2C59               	goto	u2991
  1859  0458  2C5A               	goto	u2990
  1860  0459                     u2991:
  1861  0459  2C6E               	goto	l2110
  1862  045A                     u2990:
  1863  045A                     l2106:
  1864  045A  1FA3               	btfss	___xxtofl@val+3,7
  1865  045B  2C5D               	goto	u3001
  1866  045C  2C5E               	goto	u3000
  1867  045D                     u3001:
  1868  045D  2C6E               	goto	l2110
  1869  045E                     u3000:
  1870  045E                     l2108:
  1871  045E  0920               	comf	___xxtofl@val,w
  1872  045F  00AA               	movwf	___xxtofl@arg
  1873  0460  0921               	comf	___xxtofl@val+1,w
  1874  0461  00AB               	movwf	___xxtofl@arg+1
  1875  0462  0922               	comf	___xxtofl@val+2,w
  1876  0463  00AC               	movwf	___xxtofl@arg+2
  1877  0464  0923               	comf	___xxtofl@val+3,w
  1878  0465  00AD               	movwf	___xxtofl@arg+3
  1879  0466  0AAA               	incf	___xxtofl@arg,f
  1880  0467  1903               	skipnz
  1881  0468  0AAB               	incf	___xxtofl@arg+1,f
  1882  0469  1903               	skipnz
  1883  046A  0AAC               	incf	___xxtofl@arg+2,f
  1884  046B  1903               	skipnz
  1885  046C  0AAD               	incf	___xxtofl@arg+3,f
  1886  046D  2C76               	goto	l671
  1887  046E                     l2110:
  1888  046E  0823               	movf	___xxtofl@val+3,w
  1889  046F  00AD               	movwf	___xxtofl@arg+3
  1890  0470  0822               	movf	___xxtofl@val+2,w
  1891  0471  00AC               	movwf	___xxtofl@arg+2
  1892  0472  0821               	movf	___xxtofl@val+1,w
  1893  0473  00AB               	movwf	___xxtofl@arg+1
  1894  0474  0820               	movf	___xxtofl@val,w
  1895  0475  00AA               	movwf	___xxtofl@arg
  1896  0476                     l671:
  1897  0476  0823               	movf	___xxtofl@val+3,w
  1898  0477  0422               	iorwf	___xxtofl@val+2,w
  1899  0478  0421               	iorwf	___xxtofl@val+1,w
  1900  0479  0420               	iorwf	___xxtofl@val,w
  1901  047A  1D03               	skipz
  1902  047B  2C7D               	goto	u3011
  1903  047C  2C7E               	goto	u3010
  1904  047D                     u3011:
  1905  047D  2C87               	goto	l2116
  1906  047E                     u3010:
  1907  047E                     l2112:
  1908  047E  3000               	movlw	0
  1909  047F  00A3               	movwf	?___xxtofl+3
  1910  0480  3000               	movlw	0
  1911  0481  00A2               	movwf	?___xxtofl+2
  1912  0482  3000               	movlw	0
  1913  0483  00A1               	movwf	?___xxtofl+1
  1914  0484  3000               	movlw	0
  1915  0485  00A0               	movwf	?___xxtofl
  1916  0486  2D0D               	goto	l673
  1917  0487                     l2116:
  1918  0487  3096               	movlw	150
  1919  0488  00A4               	movwf	??___xxtofl
  1920  0489  0824               	movf	??___xxtofl,w
  1921  048A  00A9               	movwf	___xxtofl@exp
  1922  048B  2C99               	goto	l2120
  1923  048C                     l2118:
  1924  048C  3001               	movlw	1
  1925  048D  00A4               	movwf	??___xxtofl
  1926  048E  0824               	movf	??___xxtofl,w
  1927  048F  07A9               	addwf	___xxtofl@exp,f
  1928  0490  3001               	movlw	1
  1929  0491                     u3025:
  1930  0491  1003               	clrc
  1931  0492  0CAD               	rrf	___xxtofl@arg+3,f
  1932  0493  0CAC               	rrf	___xxtofl@arg+2,f
  1933  0494  0CAB               	rrf	___xxtofl@arg+1,f
  1934  0495  0CAA               	rrf	___xxtofl@arg,f
  1935  0496  3EFF               	addlw	-1
  1936  0497  1D03               	skipz
  1937  0498  2C91               	goto	u3025
  1938  0499                     l2120:
  1939  0499  30FE               	movlw	254
  1940  049A  052D               	andwf	___xxtofl@arg+3,w
  1941  049B  1D03               	btfss	3,2
  1942  049C  2C9E               	goto	u3031
  1943  049D  2C9F               	goto	u3030
  1944  049E                     u3031:
  1945  049E  2C8C               	goto	l2118
  1946  049F                     u3030:
  1947  049F  2CBB               	goto	l677
  1948  04A0                     l2122:
  1949  04A0  3001               	movlw	1
  1950  04A1  00A4               	movwf	??___xxtofl
  1951  04A2  0824               	movf	??___xxtofl,w
  1952  04A3  07A9               	addwf	___xxtofl@exp,f
  1953  04A4                     l2124:
  1954  04A4  3001               	movlw	1
  1955  04A5  07AA               	addwf	___xxtofl@arg,f
  1956  04A6  3000               	movlw	0
  1957  04A7  1803               	skipnc
  1958  04A8  3001               	movlw	1
  1959  04A9  07AB               	addwf	___xxtofl@arg+1,f
  1960  04AA  3000               	movlw	0
  1961  04AB  1803               	skipnc
  1962  04AC  3001               	movlw	1
  1963  04AD  07AC               	addwf	___xxtofl@arg+2,f
  1964  04AE  3000               	movlw	0
  1965  04AF  1803               	skipnc
  1966  04B0  3001               	movlw	1
  1967  04B1  07AD               	addwf	___xxtofl@arg+3,f
  1968  04B2                     l2126:
  1969  04B2  3001               	movlw	1
  1970  04B3                     u3045:
  1971  04B3  1003               	clrc
  1972  04B4  0CAD               	rrf	___xxtofl@arg+3,f
  1973  04B5  0CAC               	rrf	___xxtofl@arg+2,f
  1974  04B6  0CAB               	rrf	___xxtofl@arg+1,f
  1975  04B7  0CAA               	rrf	___xxtofl@arg,f
  1976  04B8  3EFF               	addlw	-1
  1977  04B9  1D03               	skipz
  1978  04BA  2CB3               	goto	u3045
  1979  04BB                     l677:
  1980  04BB  30FF               	movlw	255
  1981  04BC  052D               	andwf	___xxtofl@arg+3,w
  1982  04BD  1D03               	btfss	3,2
  1983  04BE  2CC0               	goto	u3051
  1984  04BF  2CC1               	goto	u3050
  1985  04C0                     u3051:
  1986  04C0  2CA0               	goto	l2122
  1987  04C1                     u3050:
  1988  04C1  2CCD               	goto	l2130
  1989  04C2                     l2128:
  1990  04C2  3001               	movlw	1
  1991  04C3  02A9               	subwf	___xxtofl@exp,f
  1992  04C4  3001               	movlw	1
  1993  04C5  00A4               	movwf	??___xxtofl
  1994  04C6                     u3065:
  1995  04C6  1003               	clrc
  1996  04C7  0DAA               	rlf	___xxtofl@arg,f
  1997  04C8  0DAB               	rlf	___xxtofl@arg+1,f
  1998  04C9  0DAC               	rlf	___xxtofl@arg+2,f
  1999  04CA  0DAD               	rlf	___xxtofl@arg+3,f
  2000  04CB  0BA4               	decfsz	??___xxtofl,f
  2001  04CC  2CC6               	goto	u3065
  2002  04CD                     l2130:
  2003  04CD  1BAC               	btfsc	___xxtofl@arg+2,7
  2004  04CE  2CD0               	goto	u3071
  2005  04CF  2CD1               	goto	u3070
  2006  04D0                     u3071:
  2007  04D0  2CD7               	goto	l684
  2008  04D1                     u3070:
  2009  04D1                     l2132:
  2010  04D1  3002               	movlw	2
  2011  04D2  0229               	subwf	___xxtofl@exp,w
  2012  04D3  1803               	skipnc
  2013  04D4  2CD6               	goto	u3081
  2014  04D5  2CD7               	goto	u3080
  2015  04D6                     u3081:
  2016  04D6  2CC2               	goto	l2128
  2017  04D7                     u3080:
  2018  04D7                     l684:
  2019  04D7  1829               	btfsc	___xxtofl@exp,0
  2020  04D8  2CDA               	goto	u3091
  2021  04D9  2CDB               	goto	u3090
  2022  04DA                     u3091:
  2023  04DA  2CE3               	goto	l685
  2024  04DB                     u3090:
  2025  04DB                     l2134:
  2026  04DB  30FF               	movlw	255
  2027  04DC  05AA               	andwf	___xxtofl@arg,f
  2028  04DD  30FF               	movlw	255
  2029  04DE  05AB               	andwf	___xxtofl@arg+1,f
  2030  04DF  307F               	movlw	127
  2031  04E0  05AC               	andwf	___xxtofl@arg+2,f
  2032  04E1  30FF               	movlw	255
  2033  04E2  05AD               	andwf	___xxtofl@arg+3,f
  2034  04E3                     l685:
  2035  04E3  1003               	clrc
  2036  04E4  0CA9               	rrf	___xxtofl@exp,f
  2037  04E5                     l2136:
  2038  04E5  0829               	movf	___xxtofl@exp,w
  2039  04E6  00A4               	movwf	??___xxtofl
  2040  04E7  01A5               	clrf	??___xxtofl+1
  2041  04E8  01A6               	clrf	??___xxtofl+2
  2042  04E9  01A7               	clrf	??___xxtofl+3
  2043  04EA  3018               	movlw	24
  2044  04EB                     u3105:
  2045  04EB  1003               	clrc
  2046  04EC  0DA4               	rlf	??___xxtofl,f
  2047  04ED  0DA5               	rlf	??___xxtofl+1,f
  2048  04EE  0DA6               	rlf	??___xxtofl+2,f
  2049  04EF  0DA7               	rlf	??___xxtofl+3,f
  2050  04F0                     u3100:
  2051  04F0  3EFF               	addlw	-1
  2052  04F1  1D03               	skipz
  2053  04F2  2CEB               	goto	u3105
  2054  04F3  0824               	movf	??___xxtofl,w
  2055  04F4  04AA               	iorwf	___xxtofl@arg,f
  2056  04F5  0825               	movf	??___xxtofl+1,w
  2057  04F6  04AB               	iorwf	___xxtofl@arg+1,f
  2058  04F7  0826               	movf	??___xxtofl+2,w
  2059  04F8  04AC               	iorwf	___xxtofl@arg+2,f
  2060  04F9  0827               	movf	??___xxtofl+3,w
  2061  04FA  04AD               	iorwf	___xxtofl@arg+3,f
  2062  04FB                     l2138:
  2063  04FB  0828               	movf	___xxtofl@sign,w
  2064  04FC  1903               	btfsc	3,2
  2065  04FD  2CFF               	goto	u3111
  2066  04FE  2D00               	goto	u3110
  2067  04FF                     u3111:
  2068  04FF  2D05               	goto	l2144
  2069  0500                     u3110:
  2070  0500                     l2140:
  2071  0500  1FA3               	btfss	___xxtofl@val+3,7
  2072  0501  2D03               	goto	u3121
  2073  0502  2D04               	goto	u3120
  2074  0503                     u3121:
  2075  0503  2D05               	goto	l2144
  2076  0504                     u3120:
  2077  0504                     l2142:
  2078  0504  17AD               	bsf	___xxtofl@arg+3,7
  2079  0505                     l2144:
  2080  0505  082D               	movf	___xxtofl@arg+3,w
  2081  0506  00A3               	movwf	?___xxtofl+3
  2082  0507  082C               	movf	___xxtofl@arg+2,w
  2083  0508  00A2               	movwf	?___xxtofl+2
  2084  0509  082B               	movf	___xxtofl@arg+1,w
  2085  050A  00A1               	movwf	?___xxtofl+1
  2086  050B  082A               	movf	___xxtofl@arg,w
  2087  050C  00A0               	movwf	?___xxtofl
  2088  050D                     l673:
  2089  050D  0008               	return
  2090  050E                     __end_of___xxtofl:
  2091                           
  2092                           	psect	text9
  2093  0F2E                     __ptext9:	
  2094 ;; *************** function ___wmul *****************
  2095 ;; Defined at:
  2096 ;;		line 15 in file "C:\Program Files\Microchip\xc8\v2.31\pic\sources\c90\common\Umul16.c"
  2097 ;; Parameters:    Size  Location     Type
  2098 ;;  multiplier      2    0[BANK0 ] unsigned int 
  2099 ;;  multiplicand    2    2[BANK0 ] unsigned int 
  2100 ;; Auto vars:     Size  Location     Type
  2101 ;;  product         2    4[COMMON] unsigned int 
  2102 ;; Return value:  Size  Location     Type
  2103 ;;                  2    0[BANK0 ] unsigned int 
  2104 ;; Registers used:
  2105 ;;		wreg, status,2, status,0
  2106 ;; Tracked objects:
  2107 ;;		On entry : 0/0
  2108 ;;		On exit  : 0/0
  2109 ;;		Unchanged: 0/0
  2110 ;; Data sizes:     COMMON   BANK0   BANK1   BANK3   BANK2
  2111 ;;      Params:         0       4       0       0       0
  2112 ;;      Locals:         2       0       0       0       0
  2113 ;;      Temps:          0       0       0       0       0
  2114 ;;      Totals:         2       4       0       0       0
  2115 ;;Total ram usage:        6 bytes
  2116 ;; Hardware stack levels used:    1
  2117 ;; Hardware stack levels required when called:    1
  2118 ;; This function calls:
  2119 ;;		Nothing
  2120 ;; This function is called by:
  2121 ;;		_adcToString
  2122 ;;		_atoi
  2123 ;; This function uses a non-reentrant model
  2124 ;;
  2125                           
  2126                           
  2127                           ;psect for function ___wmul
  2128  0F2E                     ___wmul:
  2129  0F2E                     l1842:	
  2130                           ;incstack = 0
  2131                           ; Regs used in ___wmul: [wreg+status,2+status,0]
  2132                           
  2133  0F2E  01F4               	clrf	___wmul@product
  2134  0F2F  01F5               	clrf	___wmul@product+1
  2135  0F30                     l1844:
  2136  0F30  1283               	bcf	3,5	;RP0=0, select bank0
  2137  0F31  1303               	bcf	3,6	;RP1=0, select bank0
  2138  0F32  1C20               	btfss	___wmul@multiplier,0
  2139  0F33  2F35               	goto	u2281
  2140  0F34  2F36               	goto	u2280
  2141  0F35                     u2281:
  2142  0F35  2F3C               	goto	l238
  2143  0F36                     u2280:
  2144  0F36                     l1846:
  2145  0F36  0822               	movf	___wmul@multiplicand,w
  2146  0F37  07F4               	addwf	___wmul@product,f
  2147  0F38  1803               	skipnc
  2148  0F39  0AF5               	incf	___wmul@product+1,f
  2149  0F3A  0823               	movf	___wmul@multiplicand+1,w
  2150  0F3B  07F5               	addwf	___wmul@product+1,f
  2151  0F3C                     l238:
  2152  0F3C  3001               	movlw	1
  2153  0F3D                     u2295:
  2154  0F3D  1003               	clrc
  2155  0F3E  0DA2               	rlf	___wmul@multiplicand,f
  2156  0F3F  0DA3               	rlf	___wmul@multiplicand+1,f
  2157  0F40  3EFF               	addlw	-1
  2158  0F41  1D03               	skipz
  2159  0F42  2F3D               	goto	u2295
  2160  0F43                     l1848:
  2161  0F43  3001               	movlw	1
  2162  0F44                     u2305:
  2163  0F44  1003               	clrc
  2164  0F45  0CA1               	rrf	___wmul@multiplier+1,f
  2165  0F46  0CA0               	rrf	___wmul@multiplier,f
  2166  0F47  3EFF               	addlw	-1
  2167  0F48  1D03               	skipz
  2168  0F49  2F44               	goto	u2305
  2169  0F4A                     l1850:
  2170  0F4A  0820               	movf	___wmul@multiplier,w
  2171  0F4B  0421               	iorwf	___wmul@multiplier+1,w
  2172  0F4C  1D03               	btfss	3,2
  2173  0F4D  2F4F               	goto	u2311
  2174  0F4E  2F50               	goto	u2310
  2175  0F4F                     u2311:
  2176  0F4F  2F30               	goto	l1844
  2177  0F50                     u2310:
  2178  0F50                     l1852:
  2179  0F50  0875               	movf	___wmul@product+1,w
  2180  0F51  00A1               	movwf	?___wmul+1
  2181  0F52  0874               	movf	___wmul@product,w
  2182  0F53  00A0               	movwf	?___wmul
  2183  0F54                     l240:
  2184  0F54  0008               	return
  2185  0F55                     __end_of___wmul:
  2186                           
  2187                           	psect	text10
  2188  0F7E                     __ptext10:	
  2189 ;; *************** function ___lwmod *****************
  2190 ;; Defined at:
  2191 ;;		line 5 in file "C:\Program Files\Microchip\xc8\v2.31\pic\sources\c90\common\lwmod.c"
  2192 ;; Parameters:    Size  Location     Type
  2193 ;;  divisor         2    0[BANK0 ] unsigned int 
  2194 ;;  dividend        2    2[BANK0 ] unsigned int 
  2195 ;; Auto vars:     Size  Location     Type
  2196 ;;  counter         1    5[COMMON] unsigned char 
  2197 ;; Return value:  Size  Location     Type
  2198 ;;                  2    0[BANK0 ] unsigned int 
  2199 ;; Registers used:
  2200 ;;		wreg, status,2, status,0
  2201 ;; Tracked objects:
  2202 ;;		On entry : 0/0
  2203 ;;		On exit  : 0/0
  2204 ;;		Unchanged: 0/0
  2205 ;; Data sizes:     COMMON   BANK0   BANK1   BANK3   BANK2
  2206 ;;      Params:         0       4       0       0       0
  2207 ;;      Locals:         1       0       0       0       0
  2208 ;;      Temps:          1       0       0       0       0
  2209 ;;      Totals:         2       4       0       0       0
  2210 ;;Total ram usage:        6 bytes
  2211 ;; Hardware stack levels used:    1
  2212 ;; Hardware stack levels required when called:    1
  2213 ;; This function calls:
  2214 ;;		Nothing
  2215 ;; This function is called by:
  2216 ;;		_adcToString
  2217 ;; This function uses a non-reentrant model
  2218 ;;
  2219                           
  2220                           
  2221                           ;psect for function ___lwmod
  2222  0F7E                     ___lwmod:
  2223  0F7E                     l1942:	
  2224                           ;incstack = 0
  2225                           ; Regs used in ___lwmod: [wreg+status,2+status,0]
  2226                           
  2227  0F7E  1283               	bcf	3,5	;RP0=0, select bank0
  2228  0F7F  1303               	bcf	3,6	;RP1=0, select bank0
  2229  0F80  0820               	movf	___lwmod@divisor,w
  2230  0F81  0421               	iorwf	___lwmod@divisor+1,w
  2231  0F82  1903               	btfsc	3,2
  2232  0F83  2F85               	goto	u2561
  2233  0F84  2F86               	goto	u2560
  2234  0F85                     u2561:
  2235  0F85  2FB5               	goto	l1960
  2236  0F86                     u2560:
  2237  0F86                     l1944:
  2238  0F86  01F5               	clrf	___lwmod@counter
  2239  0F87  0AF5               	incf	___lwmod@counter,f
  2240  0F88  2F94               	goto	l1950
  2241  0F89                     l1946:
  2242  0F89  3001               	movlw	1
  2243  0F8A                     u2575:
  2244  0F8A  1003               	clrc
  2245  0F8B  0DA0               	rlf	___lwmod@divisor,f
  2246  0F8C  0DA1               	rlf	___lwmod@divisor+1,f
  2247  0F8D  3EFF               	addlw	-1
  2248  0F8E  1D03               	skipz
  2249  0F8F  2F8A               	goto	u2575
  2250  0F90                     l1948:
  2251  0F90  3001               	movlw	1
  2252  0F91  00F4               	movwf	??___lwmod
  2253  0F92  0874               	movf	??___lwmod,w
  2254  0F93  07F5               	addwf	___lwmod@counter,f
  2255  0F94                     l1950:
  2256  0F94  1FA1               	btfss	___lwmod@divisor+1,7
  2257  0F95  2F97               	goto	u2581
  2258  0F96  2F98               	goto	u2580
  2259  0F97                     u2581:
  2260  0F97  2F89               	goto	l1946
  2261  0F98                     u2580:
  2262  0F98                     l1952:
  2263  0F98  0821               	movf	___lwmod@divisor+1,w
  2264  0F99  0223               	subwf	___lwmod@dividend+1,w
  2265  0F9A  1D03               	skipz
  2266  0F9B  2F9E               	goto	u2595
  2267  0F9C  0820               	movf	___lwmod@divisor,w
  2268  0F9D  0222               	subwf	___lwmod@dividend,w
  2269  0F9E                     u2595:
  2270  0F9E  1C03               	skipc
  2271  0F9F  2FA1               	goto	u2591
  2272  0FA0  2FA2               	goto	u2590
  2273  0FA1                     u2591:
  2274  0FA1  2FA8               	goto	l1956
  2275  0FA2                     u2590:
  2276  0FA2                     l1954:
  2277  0FA2  0820               	movf	___lwmod@divisor,w
  2278  0FA3  02A2               	subwf	___lwmod@dividend,f
  2279  0FA4  0821               	movf	___lwmod@divisor+1,w
  2280  0FA5  1C03               	skipc
  2281  0FA6  03A3               	decf	___lwmod@dividend+1,f
  2282  0FA7  02A3               	subwf	___lwmod@dividend+1,f
  2283  0FA8                     l1956:
  2284  0FA8  3001               	movlw	1
  2285  0FA9                     u2605:
  2286  0FA9  1003               	clrc
  2287  0FAA  0CA1               	rrf	___lwmod@divisor+1,f
  2288  0FAB  0CA0               	rrf	___lwmod@divisor,f
  2289  0FAC  3EFF               	addlw	-1
  2290  0FAD  1D03               	skipz
  2291  0FAE  2FA9               	goto	u2605
  2292  0FAF                     l1958:
  2293  0FAF  3001               	movlw	1
  2294  0FB0  02F5               	subwf	___lwmod@counter,f
  2295  0FB1  1D03               	btfss	3,2
  2296  0FB2  2FB4               	goto	u2611
  2297  0FB3  2FB5               	goto	u2610
  2298  0FB4                     u2611:
  2299  0FB4  2F98               	goto	l1952
  2300  0FB5                     u2610:
  2301  0FB5                     l1960:
  2302  0FB5  0823               	movf	___lwmod@dividend+1,w
  2303  0FB6  00A1               	movwf	?___lwmod+1
  2304  0FB7  0822               	movf	___lwmod@dividend,w
  2305  0FB8  00A0               	movwf	?___lwmod
  2306  0FB9                     l520:
  2307  0FB9  0008               	return
  2308  0FBA                     __end_of___lwmod:
  2309                           
  2310                           	psect	text11
  2311  0FBA                     __ptext11:	
  2312 ;; *************** function ___lwdiv *****************
  2313 ;; Defined at:
  2314 ;;		line 5 in file "C:\Program Files\Microchip\xc8\v2.31\pic\sources\c90\common\lwdiv.c"
  2315 ;; Parameters:    Size  Location     Type
  2316 ;;  divisor         2    0[BANK0 ] unsigned int 
  2317 ;;  dividend        2    2[BANK0 ] unsigned int 
  2318 ;; Auto vars:     Size  Location     Type
  2319 ;;  quotient        2    5[BANK0 ] unsigned int 
  2320 ;;  counter         1    4[BANK0 ] unsigned char 
  2321 ;; Return value:  Size  Location     Type
  2322 ;;                  2    0[BANK0 ] unsigned int 
  2323 ;; Registers used:
  2324 ;;		wreg, status,2, status,0
  2325 ;; Tracked objects:
  2326 ;;		On entry : 0/0
  2327 ;;		On exit  : 0/0
  2328 ;;		Unchanged: 0/0
  2329 ;; Data sizes:     COMMON   BANK0   BANK1   BANK3   BANK2
  2330 ;;      Params:         0       4       0       0       0
  2331 ;;      Locals:         0       3       0       0       0
  2332 ;;      Temps:          1       0       0       0       0
  2333 ;;      Totals:         1       7       0       0       0
  2334 ;;Total ram usage:        8 bytes
  2335 ;; Hardware stack levels used:    1
  2336 ;; Hardware stack levels required when called:    1
  2337 ;; This function calls:
  2338 ;;		Nothing
  2339 ;; This function is called by:
  2340 ;;		_adcToString
  2341 ;; This function uses a non-reentrant model
  2342 ;;
  2343                           
  2344                           
  2345                           ;psect for function ___lwdiv
  2346  0FBA                     ___lwdiv:
  2347  0FBA                     l1916:	
  2348                           ;incstack = 0
  2349                           ; Regs used in ___lwdiv: [wreg+status,2+status,0]
  2350                           
  2351  0FBA  1283               	bcf	3,5	;RP0=0, select bank0
  2352  0FBB  1303               	bcf	3,6	;RP1=0, select bank0
  2353  0FBC  01A5               	clrf	___lwdiv@quotient
  2354  0FBD  01A6               	clrf	___lwdiv@quotient+1
  2355  0FBE                     l1918:
  2356  0FBE  0820               	movf	___lwdiv@divisor,w
  2357  0FBF  0421               	iorwf	___lwdiv@divisor+1,w
  2358  0FC0  1903               	btfsc	3,2
  2359  0FC1  2FC3               	goto	u2491
  2360  0FC2  2FC4               	goto	u2490
  2361  0FC3                     u2491:
  2362  0FC3  2FFB               	goto	l1938
  2363  0FC4                     u2490:
  2364  0FC4                     l1920:
  2365  0FC4  01A4               	clrf	___lwdiv@counter
  2366  0FC5  0AA4               	incf	___lwdiv@counter,f
  2367  0FC6  2FD2               	goto	l1926
  2368  0FC7                     l1922:
  2369  0FC7  3001               	movlw	1
  2370  0FC8                     u2505:
  2371  0FC8  1003               	clrc
  2372  0FC9  0DA0               	rlf	___lwdiv@divisor,f
  2373  0FCA  0DA1               	rlf	___lwdiv@divisor+1,f
  2374  0FCB  3EFF               	addlw	-1
  2375  0FCC  1D03               	skipz
  2376  0FCD  2FC8               	goto	u2505
  2377  0FCE                     l1924:
  2378  0FCE  3001               	movlw	1
  2379  0FCF  00F4               	movwf	??___lwdiv
  2380  0FD0  0874               	movf	??___lwdiv,w
  2381  0FD1  07A4               	addwf	___lwdiv@counter,f
  2382  0FD2                     l1926:
  2383  0FD2  1FA1               	btfss	___lwdiv@divisor+1,7
  2384  0FD3  2FD5               	goto	u2511
  2385  0FD4  2FD6               	goto	u2510
  2386  0FD5                     u2511:
  2387  0FD5  2FC7               	goto	l1922
  2388  0FD6                     u2510:
  2389  0FD6                     l1928:
  2390  0FD6  3001               	movlw	1
  2391  0FD7                     u2525:
  2392  0FD7  1003               	clrc
  2393  0FD8  0DA5               	rlf	___lwdiv@quotient,f
  2394  0FD9  0DA6               	rlf	___lwdiv@quotient+1,f
  2395  0FDA  3EFF               	addlw	-1
  2396  0FDB  1D03               	skipz
  2397  0FDC  2FD7               	goto	u2525
  2398  0FDD  0821               	movf	___lwdiv@divisor+1,w
  2399  0FDE  0223               	subwf	___lwdiv@dividend+1,w
  2400  0FDF  1D03               	skipz
  2401  0FE0  2FE3               	goto	u2535
  2402  0FE1  0820               	movf	___lwdiv@divisor,w
  2403  0FE2  0222               	subwf	___lwdiv@dividend,w
  2404  0FE3                     u2535:
  2405  0FE3  1C03               	skipc
  2406  0FE4  2FE6               	goto	u2531
  2407  0FE5  2FE7               	goto	u2530
  2408  0FE6                     u2531:
  2409  0FE6  2FEE               	goto	l1934
  2410  0FE7                     u2530:
  2411  0FE7                     l1930:
  2412  0FE7  0820               	movf	___lwdiv@divisor,w
  2413  0FE8  02A2               	subwf	___lwdiv@dividend,f
  2414  0FE9  0821               	movf	___lwdiv@divisor+1,w
  2415  0FEA  1C03               	skipc
  2416  0FEB  03A3               	decf	___lwdiv@dividend+1,f
  2417  0FEC  02A3               	subwf	___lwdiv@dividend+1,f
  2418  0FED                     l1932:
  2419  0FED  1425               	bsf	___lwdiv@quotient,0
  2420  0FEE                     l1934:
  2421  0FEE  3001               	movlw	1
  2422  0FEF                     u2545:
  2423  0FEF  1003               	clrc
  2424  0FF0  0CA1               	rrf	___lwdiv@divisor+1,f
  2425  0FF1  0CA0               	rrf	___lwdiv@divisor,f
  2426  0FF2  3EFF               	addlw	-1
  2427  0FF3  1D03               	skipz
  2428  0FF4  2FEF               	goto	u2545
  2429  0FF5                     l1936:
  2430  0FF5  3001               	movlw	1
  2431  0FF6  02A4               	subwf	___lwdiv@counter,f
  2432  0FF7  1D03               	btfss	3,2
  2433  0FF8  2FFA               	goto	u2551
  2434  0FF9  2FFB               	goto	u2550
  2435  0FFA                     u2551:
  2436  0FFA  2FD6               	goto	l1928
  2437  0FFB                     u2550:
  2438  0FFB                     l1938:
  2439  0FFB  0826               	movf	___lwdiv@quotient+1,w
  2440  0FFC  00A1               	movwf	?___lwdiv+1
  2441  0FFD  0825               	movf	___lwdiv@quotient,w
  2442  0FFE  00A0               	movwf	?___lwdiv
  2443  0FFF                     l510:
  2444  0FFF  0008               	return
  2445  1000                     __end_of___lwdiv:
  2446                           
  2447                           	psect	text12
  2448  062F                     __ptext12:	
  2449 ;; *************** function ___fltol *****************
  2450 ;; Defined at:
  2451 ;;		line 43 in file "C:\Program Files\Microchip\xc8\v2.31\pic\sources\c90\common\fltol.c"
  2452 ;; Parameters:    Size  Location     Type
  2453 ;;  f1              4   40[BANK0 ] unsigned int 
  2454 ;; Auto vars:     Size  Location     Type
  2455 ;;  exp1            1   50[BANK0 ] unsigned char 
  2456 ;;  sign1           1   49[BANK0 ] unsigned char 
  2457 ;; Return value:  Size  Location     Type
  2458 ;;                  4   40[BANK0 ] long 
  2459 ;; Registers used:
  2460 ;;		wreg, status,2, status,0
  2461 ;; Tracked objects:
  2462 ;;		On entry : 0/0
  2463 ;;		On exit  : 0/0
  2464 ;;		Unchanged: 0/0
  2465 ;; Data sizes:     COMMON   BANK0   BANK1   BANK3   BANK2
  2466 ;;      Params:         0       4       0       0       0
  2467 ;;      Locals:         0       2       0       0       0
  2468 ;;      Temps:          0       5       0       0       0
  2469 ;;      Totals:         0      11       0       0       0
  2470 ;;Total ram usage:       11 bytes
  2471 ;; Hardware stack levels used:    1
  2472 ;; Hardware stack levels required when called:    1
  2473 ;; This function calls:
  2474 ;;		Nothing
  2475 ;; This function is called by:
  2476 ;;		_adcToString
  2477 ;; This function uses a non-reentrant model
  2478 ;;
  2479                           
  2480                           
  2481                           ;psect for function ___fltol
  2482  062F                     ___fltol:
  2483  062F                     l1880:	
  2484                           ;incstack = 0
  2485                           ; Regs used in ___fltol: [wreg+status,2+status,0]
  2486                           
  2487  062F  1003               	clrc
  2488  0630  1283               	bcf	3,5	;RP0=0, select bank0
  2489  0631  1303               	bcf	3,6	;RP1=0, select bank0
  2490  0632  0D4A               	rlf	___fltol@f1+2,w
  2491  0633  0D4B               	rlf	___fltol@f1+3,w
  2492  0634  00CC               	movwf	??___fltol
  2493  0635  084C               	movf	??___fltol,w
  2494  0636  00D2               	movwf	___fltol@exp1
  2495  0637  0852               	movf	___fltol@exp1,w
  2496  0638  1D03               	btfss	3,2
  2497  0639  2E3B               	goto	u2391
  2498  063A  2E3C               	goto	u2390
  2499  063B                     u2391:
  2500  063B  2E45               	goto	l1886
  2501  063C                     u2390:
  2502  063C                     l1882:
  2503  063C  3000               	movlw	0
  2504  063D  00CB               	movwf	?___fltol+3
  2505  063E  3000               	movlw	0
  2506  063F  00CA               	movwf	?___fltol+2
  2507  0640  3000               	movlw	0
  2508  0641  00C9               	movwf	?___fltol+1
  2509  0642  3000               	movlw	0
  2510  0643  00C8               	movwf	?___fltol
  2511  0644  2EAA               	goto	l424
  2512  0645                     l1886:
  2513  0645  0848               	movf	___fltol@f1,w
  2514  0646  00CC               	movwf	??___fltol
  2515  0647  0849               	movf	___fltol@f1+1,w
  2516  0648  00CD               	movwf	??___fltol+1
  2517  0649  084A               	movf	___fltol@f1+2,w
  2518  064A  00CE               	movwf	??___fltol+2
  2519  064B  084B               	movf	___fltol@f1+3,w
  2520  064C  00CF               	movwf	??___fltol+3
  2521  064D  301F               	movlw	31
  2522  064E                     u2405:
  2523  064E  1003               	clrc
  2524  064F  0CCF               	rrf	??___fltol+3,f
  2525  0650  0CCE               	rrf	??___fltol+2,f
  2526  0651  0CCD               	rrf	??___fltol+1,f
  2527  0652  0CCC               	rrf	??___fltol,f
  2528  0653                     u2400:
  2529  0653  3EFF               	addlw	-1
  2530  0654  1D03               	skipz
  2531  0655  2E4E               	goto	u2405
  2532  0656  084C               	movf	??___fltol,w
  2533  0657  00D0               	movwf	??___fltol+4
  2534  0658  0850               	movf	??___fltol+4,w
  2535  0659  00D1               	movwf	___fltol@sign1
  2536  065A                     l1888:
  2537  065A  17CA               	bsf	___fltol@f1+2,7
  2538  065B                     l1890:
  2539  065B  30FF               	movlw	255
  2540  065C  05C8               	andwf	___fltol@f1,f
  2541  065D  30FF               	movlw	255
  2542  065E  05C9               	andwf	___fltol@f1+1,f
  2543  065F  30FF               	movlw	255
  2544  0660  05CA               	andwf	___fltol@f1+2,f
  2545  0661  3000               	movlw	0
  2546  0662  05CB               	andwf	___fltol@f1+3,f
  2547  0663                     l1892:
  2548  0663  3096               	movlw	150
  2549  0664  02D2               	subwf	___fltol@exp1,f
  2550  0665                     l1894:
  2551  0665  1FD2               	btfss	___fltol@exp1,7
  2552  0666  2E68               	goto	u2411
  2553  0667  2E69               	goto	u2410
  2554  0668                     u2411:
  2555  0668  2E83               	goto	l1904
  2556  0669                     u2410:
  2557  0669                     l1896:
  2558  0669  0852               	movf	___fltol@exp1,w
  2559  066A  3A80               	xorlw	128
  2560  066B  3E97               	addlw	151
  2561  066C  1803               	skipnc
  2562  066D  2E6F               	goto	u2421
  2563  066E  2E70               	goto	u2420
  2564  066F                     u2421:
  2565  066F  2E71               	goto	l1902
  2566  0670                     u2420:
  2567  0670  2E3C               	goto	l1882
  2568  0671                     l1902:
  2569  0671  3001               	movlw	1
  2570  0672                     u2435:
  2571  0672  1003               	clrc
  2572  0673  0CCB               	rrf	___fltol@f1+3,f
  2573  0674  0CCA               	rrf	___fltol@f1+2,f
  2574  0675  0CC9               	rrf	___fltol@f1+1,f
  2575  0676  0CC8               	rrf	___fltol@f1,f
  2576  0677  3EFF               	addlw	-1
  2577  0678  1D03               	skipz
  2578  0679  2E72               	goto	u2435
  2579  067A  3001               	movlw	1
  2580  067B  00CC               	movwf	??___fltol
  2581  067C  084C               	movf	??___fltol,w
  2582  067D  07D2               	addwf	___fltol@exp1,f
  2583  067E  1D03               	btfss	3,2
  2584  067F  2E81               	goto	u2441
  2585  0680  2E82               	goto	u2440
  2586  0681                     u2441:
  2587  0681  2E71               	goto	l1902
  2588  0682                     u2440:
  2589  0682  2E9A               	goto	l1912
  2590  0683                     l1904:
  2591  0683  3020               	movlw	32
  2592  0684  0252               	subwf	___fltol@exp1,w
  2593  0685  1C03               	skipc
  2594  0686  2E88               	goto	u2451
  2595  0687  2E89               	goto	u2450
  2596  0688                     u2451:
  2597  0688  2E95               	goto	l431
  2598  0689                     u2450:
  2599  0689  2E3C               	goto	l1882
  2600  068A                     l1910:
  2601  068A  3001               	movlw	1
  2602  068B  00CC               	movwf	??___fltol
  2603  068C                     u2465:
  2604  068C  1003               	clrc
  2605  068D  0DC8               	rlf	___fltol@f1,f
  2606  068E  0DC9               	rlf	___fltol@f1+1,f
  2607  068F  0DCA               	rlf	___fltol@f1+2,f
  2608  0690  0DCB               	rlf	___fltol@f1+3,f
  2609  0691  0BCC               	decfsz	??___fltol,f
  2610  0692  2E8C               	goto	u2465
  2611  0693  3001               	movlw	1
  2612  0694  02D2               	subwf	___fltol@exp1,f
  2613  0695                     l431:
  2614  0695  0852               	movf	___fltol@exp1,w
  2615  0696  1D03               	btfss	3,2
  2616  0697  2E99               	goto	u2471
  2617  0698  2E9A               	goto	u2470
  2618  0699                     u2471:
  2619  0699  2E8A               	goto	l1910
  2620  069A                     u2470:
  2621  069A                     l1912:
  2622  069A  0851               	movf	___fltol@sign1,w
  2623  069B  1903               	btfsc	3,2
  2624  069C  2E9E               	goto	u2481
  2625  069D  2E9F               	goto	u2480
  2626  069E                     u2481:
  2627  069E  2EAA               	goto	l434
  2628  069F                     u2480:
  2629  069F                     l1914:
  2630  069F  09C8               	comf	___fltol@f1,f
  2631  06A0  09C9               	comf	___fltol@f1+1,f
  2632  06A1  09CA               	comf	___fltol@f1+2,f
  2633  06A2  09CB               	comf	___fltol@f1+3,f
  2634  06A3  0AC8               	incf	___fltol@f1,f
  2635  06A4  1903               	skipnz
  2636  06A5  0AC9               	incf	___fltol@f1+1,f
  2637  06A6  1903               	skipnz
  2638  06A7  0ACA               	incf	___fltol@f1+2,f
  2639  06A8  1903               	skipnz
  2640  06A9  0ACB               	incf	___fltol@f1+3,f
  2641  06AA                     l434:
  2642  06AA                     l424:
  2643  06AA  0008               	return
  2644  06AB                     __end_of___fltol:
  2645                           
  2646                           	psect	text13
  2647  0020                     __ptext13:	
  2648 ;; *************** function ___flmul *****************
  2649 ;; Defined at:
  2650 ;;		line 8 in file "C:\Program Files\Microchip\xc8\v2.31\pic\sources\c90\common\sprcmul.c"
  2651 ;; Parameters:    Size  Location     Type
  2652 ;;  b               4   14[BANK0 ] long 
  2653 ;;  a               4   18[BANK0 ] long 
  2654 ;; Auto vars:     Size  Location     Type
  2655 ;;  prod            4   34[BANK0 ] struct .
  2656 ;;  grs             4   29[BANK0 ] unsigned long 
  2657 ;;  temp            2   38[BANK0 ] struct .
  2658 ;;  bexp            1   33[BANK0 ] unsigned char 
  2659 ;;  aexp            1   28[BANK0 ] unsigned char 
  2660 ;;  sign            1   27[BANK0 ] unsigned char 
  2661 ;; Return value:  Size  Location     Type
  2662 ;;                  4   14[BANK0 ] unsigned char 
  2663 ;; Registers used:
  2664 ;;		wreg, status,2, status,0, btemp+1, pclath, cstack
  2665 ;; Tracked objects:
  2666 ;;		On entry : 0/0
  2667 ;;		On exit  : 0/0
  2668 ;;		Unchanged: 0/0
  2669 ;; Data sizes:     COMMON   BANK0   BANK1   BANK3   BANK2
  2670 ;;      Params:         0       8       0       0       0
  2671 ;;      Locals:         0      13       0       0       0
  2672 ;;      Temps:          0       5       0       0       0
  2673 ;;      Totals:         0      26       0       0       0
  2674 ;;Total ram usage:       26 bytes
  2675 ;; Hardware stack levels used:    1
  2676 ;; Hardware stack levels required when called:    2
  2677 ;; This function calls:
  2678 ;;		__Umul8_16
  2679 ;; This function is called by:
  2680 ;;		_adcToString
  2681 ;; This function uses a non-reentrant model
  2682 ;;
  2683                           
  2684                           
  2685                           ;psect for function ___flmul
  2686  0020                     ___flmul:
  2687  0020                     l1964:	
  2688                           ;incstack = 0
  2689                           ; Regs used in ___flmul: [wreg+status,2+status,0+btemp+1+pclath+cstack]
  2690                           
  2691  0020  1283               	bcf	3,5	;RP0=0, select bank0
  2692  0021  1303               	bcf	3,6	;RP1=0, select bank0
  2693  0022  0831               	movf	___flmul@b+3,w
  2694  0023  3980               	andlw	128
  2695  0024  00B6               	movwf	??___flmul
  2696  0025  0836               	movf	??___flmul,w
  2697  0026  00BB               	movwf	___flmul@sign
  2698  0027                     l1966:
  2699  0027  0831               	movf	___flmul@b+3,w
  2700  0028  00B6               	movwf	??___flmul
  2701  0029  0736               	addwf	??___flmul,w
  2702  002A  00B7               	movwf	??___flmul+1
  2703  002B  0837               	movf	??___flmul+1,w
  2704  002C  00C1               	movwf	___flmul@bexp
  2705  002D                     l1968:
  2706  002D  1FB0               	btfss	___flmul@b+2,7
  2707  002E  2830               	goto	u2621
  2708  002F  2831               	goto	u2620
  2709  0030                     u2621:
  2710  0030  2832               	goto	l1972
  2711  0031                     u2620:
  2712  0031                     l1970:
  2713  0031  1441               	bsf	___flmul@bexp,0
  2714  0032                     l1972:
  2715  0032  0841               	movf	___flmul@bexp,w
  2716  0033  1903               	btfsc	3,2
  2717  0034  2836               	goto	u2631
  2718  0035  2837               	goto	u2630
  2719  0036                     u2631:
  2720  0036  2846               	goto	l1980
  2721  0037                     u2630:
  2722  0037                     l1974:
  2723  0037  0A41               	incf	___flmul@bexp,w
  2724  0038  1D03               	btfss	3,2
  2725  0039  283B               	goto	u2641
  2726  003A  283C               	goto	u2640
  2727  003B                     u2641:
  2728  003B  2844               	goto	l1978
  2729  003C                     u2640:
  2730  003C                     l1976:
  2731  003C  3000               	movlw	0
  2732  003D  00B1               	movwf	___flmul@b+3
  2733  003E  3000               	movlw	0
  2734  003F  00B0               	movwf	___flmul@b+2
  2735  0040  3000               	movlw	0
  2736  0041  00AF               	movwf	___flmul@b+1
  2737  0042  3000               	movlw	0
  2738  0043  00AE               	movwf	___flmul@b
  2739  0044                     l1978:
  2740  0044  17B0               	bsf	___flmul@b+2,7
  2741  0045  284E               	goto	l1982
  2742  0046                     l1980:
  2743  0046  3000               	movlw	0
  2744  0047  00B1               	movwf	___flmul@b+3
  2745  0048  3000               	movlw	0
  2746  0049  00B0               	movwf	___flmul@b+2
  2747  004A  3000               	movlw	0
  2748  004B  00AF               	movwf	___flmul@b+1
  2749  004C  3000               	movlw	0
  2750  004D  00AE               	movwf	___flmul@b
  2751  004E                     l1982:
  2752  004E  0835               	movf	___flmul@a+3,w
  2753  004F  3980               	andlw	128
  2754  0050  00B6               	movwf	??___flmul
  2755  0051  0836               	movf	??___flmul,w
  2756  0052  06BB               	xorwf	___flmul@sign,f
  2757  0053                     l1984:
  2758  0053  0835               	movf	___flmul@a+3,w
  2759  0054  00B6               	movwf	??___flmul
  2760  0055  0736               	addwf	??___flmul,w
  2761  0056  00B7               	movwf	??___flmul+1
  2762  0057  0837               	movf	??___flmul+1,w
  2763  0058  00BC               	movwf	___flmul@aexp
  2764  0059                     l1986:
  2765  0059  1FB4               	btfss	___flmul@a+2,7
  2766  005A  285C               	goto	u2651
  2767  005B  285D               	goto	u2650
  2768  005C                     u2651:
  2769  005C  285E               	goto	l1990
  2770  005D                     u2650:
  2771  005D                     l1988:
  2772  005D  143C               	bsf	___flmul@aexp,0
  2773  005E                     l1990:
  2774  005E  083C               	movf	___flmul@aexp,w
  2775  005F  1903               	btfsc	3,2
  2776  0060  2862               	goto	u2661
  2777  0061  2863               	goto	u2660
  2778  0062                     u2661:
  2779  0062  2872               	goto	l1998
  2780  0063                     u2660:
  2781  0063                     l1992:
  2782  0063  0A3C               	incf	___flmul@aexp,w
  2783  0064  1D03               	btfss	3,2
  2784  0065  2867               	goto	u2671
  2785  0066  2868               	goto	u2670
  2786  0067                     u2671:
  2787  0067  2870               	goto	l1996
  2788  0068                     u2670:
  2789  0068                     l1994:
  2790  0068  3000               	movlw	0
  2791  0069  00B5               	movwf	___flmul@a+3
  2792  006A  3000               	movlw	0
  2793  006B  00B4               	movwf	___flmul@a+2
  2794  006C  3000               	movlw	0
  2795  006D  00B3               	movwf	___flmul@a+1
  2796  006E  3000               	movlw	0
  2797  006F  00B2               	movwf	___flmul@a
  2798  0070                     l1996:
  2799  0070  17B4               	bsf	___flmul@a+2,7
  2800  0071  287A               	goto	l2000
  2801  0072                     l1998:
  2802  0072  3000               	movlw	0
  2803  0073  00B5               	movwf	___flmul@a+3
  2804  0074  3000               	movlw	0
  2805  0075  00B4               	movwf	___flmul@a+2
  2806  0076  3000               	movlw	0
  2807  0077  00B3               	movwf	___flmul@a+1
  2808  0078  3000               	movlw	0
  2809  0079  00B2               	movwf	___flmul@a
  2810  007A                     l2000:
  2811  007A  083C               	movf	___flmul@aexp,w
  2812  007B  1903               	btfsc	3,2
  2813  007C  287E               	goto	u2681
  2814  007D  287F               	goto	u2680
  2815  007E                     u2681:
  2816  007E  2884               	goto	l2004
  2817  007F                     u2680:
  2818  007F                     l2002:
  2819  007F  0841               	movf	___flmul@bexp,w
  2820  0080  1D03               	btfss	3,2
  2821  0081  2883               	goto	u2691
  2822  0082  2884               	goto	u2690
  2823  0083                     u2691:
  2824  0083  288D               	goto	l2008
  2825  0084                     u2690:
  2826  0084                     l2004:
  2827  0084  3000               	movlw	0
  2828  0085  00B1               	movwf	?___flmul+3
  2829  0086  3000               	movlw	0
  2830  0087  00B0               	movwf	?___flmul+2
  2831  0088  3000               	movlw	0
  2832  0089  00AF               	movwf	?___flmul+1
  2833  008A  3000               	movlw	0
  2834  008B  00AE               	movwf	?___flmul
  2835  008C  2B80               	goto	l627
  2836  008D                     l2008:
  2837  008D  082E               	movf	___flmul@b,w
  2838  008E  00B6               	movwf	??___flmul
  2839  008F  0836               	movf	??___flmul,w
  2840  0090  00F4               	movwf	__Umul8_16@multiplicand
  2841  0091  0834               	movf	___flmul@a+2,w
  2842  0092  120A  158A  2755  120A  118A  	fcall	__Umul8_16
  2843  0097  0875               	movf	?__Umul8_16+1,w
  2844  0098  1283               	bcf	3,5	;RP0=0, select bank0
  2845  0099  1303               	bcf	3,6	;RP1=0, select bank0
  2846  009A  00C7               	movwf	___flmul@temp+1
  2847  009B  0874               	movf	?__Umul8_16,w
  2848  009C  00C6               	movwf	___flmul@temp
  2849  009D                     l2010:
  2850  009D  0846               	movf	___flmul@temp,w
  2851  009E  00B6               	movwf	??___flmul
  2852  009F  01B7               	clrf	??___flmul+1
  2853  00A0  01B8               	clrf	??___flmul+2
  2854  00A1  01B9               	clrf	??___flmul+3
  2855  00A2  0839               	movf	??___flmul+3,w
  2856  00A3  00C0               	movwf	___flmul@grs+3
  2857  00A4  0838               	movf	??___flmul+2,w
  2858  00A5  00BF               	movwf	___flmul@grs+2
  2859  00A6  0837               	movf	??___flmul+1,w
  2860  00A7  00BE               	movwf	___flmul@grs+1
  2861  00A8  0836               	movf	??___flmul,w
  2862  00A9  00BD               	movwf	___flmul@grs
  2863  00AA                     l2012:
  2864  00AA  0847               	movf	___flmul@temp+1,w
  2865  00AB  00B6               	movwf	??___flmul
  2866  00AC  01B7               	clrf	??___flmul+1
  2867  00AD  01B8               	clrf	??___flmul+2
  2868  00AE  01B9               	clrf	??___flmul+3
  2869  00AF  0839               	movf	??___flmul+3,w
  2870  00B0  00C5               	movwf	___flmul@prod+3
  2871  00B1  0838               	movf	??___flmul+2,w
  2872  00B2  00C4               	movwf	___flmul@prod+2
  2873  00B3  0837               	movf	??___flmul+1,w
  2874  00B4  00C3               	movwf	___flmul@prod+1
  2875  00B5  0836               	movf	??___flmul,w
  2876  00B6  00C2               	movwf	___flmul@prod
  2877  00B7  082F               	movf	___flmul@b+1,w
  2878  00B8  00B6               	movwf	??___flmul
  2879  00B9  0836               	movf	??___flmul,w
  2880  00BA  00F4               	movwf	__Umul8_16@multiplicand
  2881  00BB  0833               	movf	___flmul@a+1,w
  2882  00BC  120A  158A  2755  120A  118A  	fcall	__Umul8_16
  2883  00C1  0875               	movf	?__Umul8_16+1,w
  2884  00C2  1283               	bcf	3,5	;RP0=0, select bank0
  2885  00C3  1303               	bcf	3,6	;RP1=0, select bank0
  2886  00C4  00C7               	movwf	___flmul@temp+1
  2887  00C5  0874               	movf	?__Umul8_16,w
  2888  00C6  00C6               	movwf	___flmul@temp
  2889  00C7                     l2014:
  2890  00C7  0846               	movf	___flmul@temp,w
  2891  00C8  00B6               	movwf	??___flmul
  2892  00C9  01B7               	clrf	??___flmul+1
  2893  00CA  01B8               	clrf	??___flmul+2
  2894  00CB  01B9               	clrf	??___flmul+3
  2895  00CC  0836               	movf	??___flmul,w
  2896  00CD  07BD               	addwf	___flmul@grs,f
  2897  00CE  0837               	movf	??___flmul+1,w
  2898  00CF  1103               	clrz
  2899  00D0  1803               	skipnc
  2900  00D1  3E01               	addlw	1
  2901  00D2  1903               	skipnz
  2902  00D3  28D5               	goto	u2701
  2903  00D4  07BE               	addwf	___flmul@grs+1,f
  2904  00D5                     u2701:
  2905  00D5  0838               	movf	??___flmul+2,w
  2906  00D6  1103               	clrz
  2907  00D7  1803               	skipnc
  2908  00D8  3E01               	addlw	1
  2909  00D9  1903               	skipnz
  2910  00DA  28DC               	goto	u2702
  2911  00DB  07BF               	addwf	___flmul@grs+2,f
  2912  00DC                     u2702:
  2913  00DC  0839               	movf	??___flmul+3,w
  2914  00DD  1103               	clrz
  2915  00DE  1803               	skipnc
  2916  00DF  3E01               	addlw	1
  2917  00E0  1903               	skipnz
  2918  00E1  28E3               	goto	u2703
  2919  00E2  07C0               	addwf	___flmul@grs+3,f
  2920  00E3                     u2703:
  2921  00E3                     l2016:
  2922  00E3  0847               	movf	___flmul@temp+1,w
  2923  00E4  00B6               	movwf	??___flmul
  2924  00E5  01B7               	clrf	??___flmul+1
  2925  00E6  01B8               	clrf	??___flmul+2
  2926  00E7  01B9               	clrf	??___flmul+3
  2927  00E8  0836               	movf	??___flmul,w
  2928  00E9  07C2               	addwf	___flmul@prod,f
  2929  00EA  0837               	movf	??___flmul+1,w
  2930  00EB  1103               	clrz
  2931  00EC  1803               	skipnc
  2932  00ED  3E01               	addlw	1
  2933  00EE  1903               	skipnz
  2934  00EF  28F1               	goto	u2711
  2935  00F0  07C3               	addwf	___flmul@prod+1,f
  2936  00F1                     u2711:
  2937  00F1  0838               	movf	??___flmul+2,w
  2938  00F2  1103               	clrz
  2939  00F3  1803               	skipnc
  2940  00F4  3E01               	addlw	1
  2941  00F5  1903               	skipnz
  2942  00F6  28F8               	goto	u2712
  2943  00F7  07C4               	addwf	___flmul@prod+2,f
  2944  00F8                     u2712:
  2945  00F8  0839               	movf	??___flmul+3,w
  2946  00F9  1103               	clrz
  2947  00FA  1803               	skipnc
  2948  00FB  3E01               	addlw	1
  2949  00FC  1903               	skipnz
  2950  00FD  28FF               	goto	u2713
  2951  00FE  07C5               	addwf	___flmul@prod+3,f
  2952  00FF                     u2713:
  2953  00FF  0830               	movf	___flmul@b+2,w
  2954  0100  00B6               	movwf	??___flmul
  2955  0101  0836               	movf	??___flmul,w
  2956  0102  00F4               	movwf	__Umul8_16@multiplicand
  2957  0103  0832               	movf	___flmul@a,w
  2958  0104  120A  158A  2755  120A  118A  	fcall	__Umul8_16
  2959  0109  0875               	movf	?__Umul8_16+1,w
  2960  010A  1283               	bcf	3,5	;RP0=0, select bank0
  2961  010B  1303               	bcf	3,6	;RP1=0, select bank0
  2962  010C  00C7               	movwf	___flmul@temp+1
  2963  010D  0874               	movf	?__Umul8_16,w
  2964  010E  00C6               	movwf	___flmul@temp
  2965  010F                     l2018:
  2966  010F  0846               	movf	___flmul@temp,w
  2967  0110  00B6               	movwf	??___flmul
  2968  0111  01B7               	clrf	??___flmul+1
  2969  0112  01B8               	clrf	??___flmul+2
  2970  0113  01B9               	clrf	??___flmul+3
  2971  0114  0836               	movf	??___flmul,w
  2972  0115  07BD               	addwf	___flmul@grs,f
  2973  0116  0837               	movf	??___flmul+1,w
  2974  0117  1103               	clrz
  2975  0118  1803               	skipnc
  2976  0119  3E01               	addlw	1
  2977  011A  1903               	skipnz
  2978  011B  291D               	goto	u2721
  2979  011C  07BE               	addwf	___flmul@grs+1,f
  2980  011D                     u2721:
  2981  011D  0838               	movf	??___flmul+2,w
  2982  011E  1103               	clrz
  2983  011F  1803               	skipnc
  2984  0120  3E01               	addlw	1
  2985  0121  1903               	skipnz
  2986  0122  2924               	goto	u2722
  2987  0123  07BF               	addwf	___flmul@grs+2,f
  2988  0124                     u2722:
  2989  0124  0839               	movf	??___flmul+3,w
  2990  0125  1103               	clrz
  2991  0126  1803               	skipnc
  2992  0127  3E01               	addlw	1
  2993  0128  1903               	skipnz
  2994  0129  292B               	goto	u2723
  2995  012A  07C0               	addwf	___flmul@grs+3,f
  2996  012B                     u2723:
  2997  012B                     l2020:
  2998  012B  0847               	movf	___flmul@temp+1,w
  2999  012C  00B6               	movwf	??___flmul
  3000  012D  01B7               	clrf	??___flmul+1
  3001  012E  01B8               	clrf	??___flmul+2
  3002  012F  01B9               	clrf	??___flmul+3
  3003  0130  0836               	movf	??___flmul,w
  3004  0131  07C2               	addwf	___flmul@prod,f
  3005  0132  0837               	movf	??___flmul+1,w
  3006  0133  1103               	clrz
  3007  0134  1803               	skipnc
  3008  0135  3E01               	addlw	1
  3009  0136  1903               	skipnz
  3010  0137  2939               	goto	u2731
  3011  0138  07C3               	addwf	___flmul@prod+1,f
  3012  0139                     u2731:
  3013  0139  0838               	movf	??___flmul+2,w
  3014  013A  1103               	clrz
  3015  013B  1803               	skipnc
  3016  013C  3E01               	addlw	1
  3017  013D  1903               	skipnz
  3018  013E  2940               	goto	u2732
  3019  013F  07C4               	addwf	___flmul@prod+2,f
  3020  0140                     u2732:
  3021  0140  0839               	movf	??___flmul+3,w
  3022  0141  1103               	clrz
  3023  0142  1803               	skipnc
  3024  0143  3E01               	addlw	1
  3025  0144  1903               	skipnz
  3026  0145  2947               	goto	u2733
  3027  0146  07C5               	addwf	___flmul@prod+3,f
  3028  0147                     u2733:
  3029  0147                     l2022:
  3030  0147  3008               	movlw	8
  3031  0148  00B6               	movwf	??___flmul
  3032  0149                     u2745:
  3033  0149  1003               	clrc
  3034  014A  0DBD               	rlf	___flmul@grs,f
  3035  014B  0DBE               	rlf	___flmul@grs+1,f
  3036  014C  0DBF               	rlf	___flmul@grs+2,f
  3037  014D  0DC0               	rlf	___flmul@grs+3,f
  3038  014E  0BB6               	decfsz	??___flmul,f
  3039  014F  2949               	goto	u2745
  3040  0150                     l2024:
  3041  0150  082F               	movf	___flmul@b+1,w
  3042  0151  00B6               	movwf	??___flmul
  3043  0152  0836               	movf	??___flmul,w
  3044  0153  00F4               	movwf	__Umul8_16@multiplicand
  3045  0154  0832               	movf	___flmul@a,w
  3046  0155  120A  158A  2755  120A  118A  	fcall	__Umul8_16
  3047  015A  0875               	movf	?__Umul8_16+1,w
  3048  015B  1283               	bcf	3,5	;RP0=0, select bank0
  3049  015C  1303               	bcf	3,6	;RP1=0, select bank0
  3050  015D  00C7               	movwf	___flmul@temp+1
  3051  015E  0874               	movf	?__Umul8_16,w
  3052  015F  00C6               	movwf	___flmul@temp
  3053  0160                     l2026:
  3054  0160  0846               	movf	___flmul@temp,w
  3055  0161  00B6               	movwf	??___flmul
  3056  0162  0847               	movf	___flmul@temp+1,w
  3057  0163  00B7               	movwf	??___flmul+1
  3058  0164  01B8               	clrf	??___flmul+2
  3059  0165  01B9               	clrf	??___flmul+3
  3060  0166  0836               	movf	??___flmul,w
  3061  0167  07BD               	addwf	___flmul@grs,f
  3062  0168  0837               	movf	??___flmul+1,w
  3063  0169  1103               	clrz
  3064  016A  1803               	skipnc
  3065  016B  3E01               	addlw	1
  3066  016C  1903               	skipnz
  3067  016D  296F               	goto	u2751
  3068  016E  07BE               	addwf	___flmul@grs+1,f
  3069  016F                     u2751:
  3070  016F  0838               	movf	??___flmul+2,w
  3071  0170  1103               	clrz
  3072  0171  1803               	skipnc
  3073  0172  3E01               	addlw	1
  3074  0173  1903               	skipnz
  3075  0174  2976               	goto	u2752
  3076  0175  07BF               	addwf	___flmul@grs+2,f
  3077  0176                     u2752:
  3078  0176  0839               	movf	??___flmul+3,w
  3079  0177  1103               	clrz
  3080  0178  1803               	skipnc
  3081  0179  3E01               	addlw	1
  3082  017A  1903               	skipnz
  3083  017B  297D               	goto	u2753
  3084  017C  07C0               	addwf	___flmul@grs+3,f
  3085  017D                     u2753:
  3086  017D                     l2028:
  3087  017D  082E               	movf	___flmul@b,w
  3088  017E  00B6               	movwf	??___flmul
  3089  017F  0836               	movf	??___flmul,w
  3090  0180  00F4               	movwf	__Umul8_16@multiplicand
  3091  0181  0833               	movf	___flmul@a+1,w
  3092  0182  120A  158A  2755  120A  118A  	fcall	__Umul8_16
  3093  0187  0875               	movf	?__Umul8_16+1,w
  3094  0188  1283               	bcf	3,5	;RP0=0, select bank0
  3095  0189  1303               	bcf	3,6	;RP1=0, select bank0
  3096  018A  00C7               	movwf	___flmul@temp+1
  3097  018B  0874               	movf	?__Umul8_16,w
  3098  018C  00C6               	movwf	___flmul@temp
  3099  018D                     l2030:
  3100  018D  0846               	movf	___flmul@temp,w
  3101  018E  00B6               	movwf	??___flmul
  3102  018F  0847               	movf	___flmul@temp+1,w
  3103  0190  00B7               	movwf	??___flmul+1
  3104  0191  01B8               	clrf	??___flmul+2
  3105  0192  01B9               	clrf	??___flmul+3
  3106  0193  0836               	movf	??___flmul,w
  3107  0194  07BD               	addwf	___flmul@grs,f
  3108  0195  0837               	movf	??___flmul+1,w
  3109  0196  1103               	clrz
  3110  0197  1803               	skipnc
  3111  0198  3E01               	addlw	1
  3112  0199  1903               	skipnz
  3113  019A  299C               	goto	u2761
  3114  019B  07BE               	addwf	___flmul@grs+1,f
  3115  019C                     u2761:
  3116  019C  0838               	movf	??___flmul+2,w
  3117  019D  1103               	clrz
  3118  019E  1803               	skipnc
  3119  019F  3E01               	addlw	1
  3120  01A0  1903               	skipnz
  3121  01A1  29A3               	goto	u2762
  3122  01A2  07BF               	addwf	___flmul@grs+2,f
  3123  01A3                     u2762:
  3124  01A3  0839               	movf	??___flmul+3,w
  3125  01A4  1103               	clrz
  3126  01A5  1803               	skipnc
  3127  01A6  3E01               	addlw	1
  3128  01A7  1903               	skipnz
  3129  01A8  29AA               	goto	u2763
  3130  01A9  07C0               	addwf	___flmul@grs+3,f
  3131  01AA                     u2763:
  3132  01AA                     l2032:
  3133  01AA  3008               	movlw	8
  3134  01AB  00B6               	movwf	??___flmul
  3135  01AC                     u2775:
  3136  01AC  1003               	clrc
  3137  01AD  0DBD               	rlf	___flmul@grs,f
  3138  01AE  0DBE               	rlf	___flmul@grs+1,f
  3139  01AF  0DBF               	rlf	___flmul@grs+2,f
  3140  01B0  0DC0               	rlf	___flmul@grs+3,f
  3141  01B1  0BB6               	decfsz	??___flmul,f
  3142  01B2  29AC               	goto	u2775
  3143  01B3  082E               	movf	___flmul@b,w
  3144  01B4  00B6               	movwf	??___flmul
  3145  01B5  0836               	movf	??___flmul,w
  3146  01B6  00F4               	movwf	__Umul8_16@multiplicand
  3147  01B7  0832               	movf	___flmul@a,w
  3148  01B8  120A  158A  2755  120A  118A  	fcall	__Umul8_16
  3149  01BD  0875               	movf	?__Umul8_16+1,w
  3150  01BE  1283               	bcf	3,5	;RP0=0, select bank0
  3151  01BF  1303               	bcf	3,6	;RP1=0, select bank0
  3152  01C0  00C7               	movwf	___flmul@temp+1
  3153  01C1  0874               	movf	?__Umul8_16,w
  3154  01C2  00C6               	movwf	___flmul@temp
  3155  01C3                     l2034:
  3156  01C3  0846               	movf	___flmul@temp,w
  3157  01C4  00B6               	movwf	??___flmul
  3158  01C5  0847               	movf	___flmul@temp+1,w
  3159  01C6  00B7               	movwf	??___flmul+1
  3160  01C7  01B8               	clrf	??___flmul+2
  3161  01C8  01B9               	clrf	??___flmul+3
  3162  01C9  0836               	movf	??___flmul,w
  3163  01CA  07BD               	addwf	___flmul@grs,f
  3164  01CB  0837               	movf	??___flmul+1,w
  3165  01CC  1103               	clrz
  3166  01CD  1803               	skipnc
  3167  01CE  3E01               	addlw	1
  3168  01CF  1903               	skipnz
  3169  01D0  29D2               	goto	u2781
  3170  01D1  07BE               	addwf	___flmul@grs+1,f
  3171  01D2                     u2781:
  3172  01D2  0838               	movf	??___flmul+2,w
  3173  01D3  1103               	clrz
  3174  01D4  1803               	skipnc
  3175  01D5  3E01               	addlw	1
  3176  01D6  1903               	skipnz
  3177  01D7  29D9               	goto	u2782
  3178  01D8  07BF               	addwf	___flmul@grs+2,f
  3179  01D9                     u2782:
  3180  01D9  0839               	movf	??___flmul+3,w
  3181  01DA  1103               	clrz
  3182  01DB  1803               	skipnc
  3183  01DC  3E01               	addlw	1
  3184  01DD  1903               	skipnz
  3185  01DE  29E0               	goto	u2783
  3186  01DF  07C0               	addwf	___flmul@grs+3,f
  3187  01E0                     u2783:
  3188  01E0                     l2036:
  3189  01E0  082F               	movf	___flmul@b+1,w
  3190  01E1  00B6               	movwf	??___flmul
  3191  01E2  0836               	movf	??___flmul,w
  3192  01E3  00F4               	movwf	__Umul8_16@multiplicand
  3193  01E4  0834               	movf	___flmul@a+2,w
  3194  01E5  120A  158A  2755  120A  118A  	fcall	__Umul8_16
  3195  01EA  0875               	movf	?__Umul8_16+1,w
  3196  01EB  1283               	bcf	3,5	;RP0=0, select bank0
  3197  01EC  1303               	bcf	3,6	;RP1=0, select bank0
  3198  01ED  00C7               	movwf	___flmul@temp+1
  3199  01EE  0874               	movf	?__Umul8_16,w
  3200  01EF  00C6               	movwf	___flmul@temp
  3201  01F0  0846               	movf	___flmul@temp,w
  3202  01F1  00B6               	movwf	??___flmul
  3203  01F2  0847               	movf	___flmul@temp+1,w
  3204  01F3  00B7               	movwf	??___flmul+1
  3205  01F4  01B8               	clrf	??___flmul+2
  3206  01F5  01B9               	clrf	??___flmul+3
  3207  01F6  0836               	movf	??___flmul,w
  3208  01F7  07C2               	addwf	___flmul@prod,f
  3209  01F8  0837               	movf	??___flmul+1,w
  3210  01F9  1103               	clrz
  3211  01FA  1803               	skipnc
  3212  01FB  3E01               	addlw	1
  3213  01FC  1903               	skipnz
  3214  01FD  29FF               	goto	u2791
  3215  01FE  07C3               	addwf	___flmul@prod+1,f
  3216  01FF                     u2791:
  3217  01FF  0838               	movf	??___flmul+2,w
  3218  0200  1103               	clrz
  3219  0201  1803               	skipnc
  3220  0202  3E01               	addlw	1
  3221  0203  1903               	skipnz
  3222  0204  2A06               	goto	u2792
  3223  0205  07C4               	addwf	___flmul@prod+2,f
  3224  0206                     u2792:
  3225  0206  0839               	movf	??___flmul+3,w
  3226  0207  1103               	clrz
  3227  0208  1803               	skipnc
  3228  0209  3E01               	addlw	1
  3229  020A  1903               	skipnz
  3230  020B  2A0D               	goto	u2793
  3231  020C  07C5               	addwf	___flmul@prod+3,f
  3232  020D                     u2793:
  3233  020D                     l2038:
  3234  020D  0830               	movf	___flmul@b+2,w
  3235  020E  00B6               	movwf	??___flmul
  3236  020F  0836               	movf	??___flmul,w
  3237  0210  00F4               	movwf	__Umul8_16@multiplicand
  3238  0211  0833               	movf	___flmul@a+1,w
  3239  0212  120A  158A  2755  120A  118A  	fcall	__Umul8_16
  3240  0217  0875               	movf	?__Umul8_16+1,w
  3241  0218  1283               	bcf	3,5	;RP0=0, select bank0
  3242  0219  1303               	bcf	3,6	;RP1=0, select bank0
  3243  021A  00C7               	movwf	___flmul@temp+1
  3244  021B  0874               	movf	?__Umul8_16,w
  3245  021C  00C6               	movwf	___flmul@temp
  3246  021D                     l2040:
  3247  021D  0846               	movf	___flmul@temp,w
  3248  021E  00B6               	movwf	??___flmul
  3249  021F  0847               	movf	___flmul@temp+1,w
  3250  0220  00B7               	movwf	??___flmul+1
  3251  0221  01B8               	clrf	??___flmul+2
  3252  0222  01B9               	clrf	??___flmul+3
  3253  0223  0836               	movf	??___flmul,w
  3254  0224  07C2               	addwf	___flmul@prod,f
  3255  0225  0837               	movf	??___flmul+1,w
  3256  0226  1103               	clrz
  3257  0227  1803               	skipnc
  3258  0228  3E01               	addlw	1
  3259  0229  1903               	skipnz
  3260  022A  2A2C               	goto	u2801
  3261  022B  07C3               	addwf	___flmul@prod+1,f
  3262  022C                     u2801:
  3263  022C  0838               	movf	??___flmul+2,w
  3264  022D  1103               	clrz
  3265  022E  1803               	skipnc
  3266  022F  3E01               	addlw	1
  3267  0230  1903               	skipnz
  3268  0231  2A33               	goto	u2802
  3269  0232  07C4               	addwf	___flmul@prod+2,f
  3270  0233                     u2802:
  3271  0233  0839               	movf	??___flmul+3,w
  3272  0234  1103               	clrz
  3273  0235  1803               	skipnc
  3274  0236  3E01               	addlw	1
  3275  0237  1903               	skipnz
  3276  0238  2A3A               	goto	u2803
  3277  0239  07C5               	addwf	___flmul@prod+3,f
  3278  023A                     u2803:
  3279  023A  0830               	movf	___flmul@b+2,w
  3280  023B  00B6               	movwf	??___flmul
  3281  023C  0836               	movf	??___flmul,w
  3282  023D  00F4               	movwf	__Umul8_16@multiplicand
  3283  023E  0834               	movf	___flmul@a+2,w
  3284  023F  120A  158A  2755  120A  118A  	fcall	__Umul8_16
  3285  0244  0875               	movf	?__Umul8_16+1,w
  3286  0245  1283               	bcf	3,5	;RP0=0, select bank0
  3287  0246  1303               	bcf	3,6	;RP1=0, select bank0
  3288  0247  00C7               	movwf	___flmul@temp+1
  3289  0248  0874               	movf	?__Umul8_16,w
  3290  0249  00C6               	movwf	___flmul@temp
  3291  024A                     l2042:
  3292  024A  0846               	movf	___flmul@temp,w
  3293  024B  00B6               	movwf	??___flmul
  3294  024C  0847               	movf	___flmul@temp+1,w
  3295  024D  00B7               	movwf	??___flmul+1
  3296  024E  01B8               	clrf	??___flmul+2
  3297  024F  01B9               	clrf	??___flmul+3
  3298  0250  3008               	movlw	8
  3299  0251                     u2815:
  3300  0251  1003               	clrc
  3301  0252  0DB6               	rlf	??___flmul,f
  3302  0253  0DB7               	rlf	??___flmul+1,f
  3303  0254  0DB8               	rlf	??___flmul+2,f
  3304  0255  0DB9               	rlf	??___flmul+3,f
  3305  0256                     u2810:
  3306  0256  3EFF               	addlw	-1
  3307  0257  1D03               	skipz
  3308  0258  2A51               	goto	u2815
  3309  0259  0836               	movf	??___flmul,w
  3310  025A  07C2               	addwf	___flmul@prod,f
  3311  025B  0837               	movf	??___flmul+1,w
  3312  025C  1103               	clrz
  3313  025D  1803               	skipnc
  3314  025E  3E01               	addlw	1
  3315  025F  1903               	skipnz
  3316  0260  2A62               	goto	u2821
  3317  0261  07C3               	addwf	___flmul@prod+1,f
  3318  0262                     u2821:
  3319  0262  0838               	movf	??___flmul+2,w
  3320  0263  1103               	clrz
  3321  0264  1803               	skipnc
  3322  0265  3E01               	addlw	1
  3323  0266  1903               	skipnz
  3324  0267  2A69               	goto	u2822
  3325  0268  07C4               	addwf	___flmul@prod+2,f
  3326  0269                     u2822:
  3327  0269  0839               	movf	??___flmul+3,w
  3328  026A  1103               	clrz
  3329  026B  1803               	skipnc
  3330  026C  3E01               	addlw	1
  3331  026D  1903               	skipnz
  3332  026E  2A70               	goto	u2823
  3333  026F  07C5               	addwf	___flmul@prod+3,f
  3334  0270                     u2823:
  3335  0270                     l2044:
  3336  0270  083D               	movf	___flmul@grs,w
  3337  0271  00B6               	movwf	??___flmul
  3338  0272  083E               	movf	___flmul@grs+1,w
  3339  0273  00B7               	movwf	??___flmul+1
  3340  0274  083F               	movf	___flmul@grs+2,w
  3341  0275  00B8               	movwf	??___flmul+2
  3342  0276  0840               	movf	___flmul@grs+3,w
  3343  0277  00B9               	movwf	??___flmul+3
  3344  0278  3018               	movlw	24
  3345  0279                     u2835:
  3346  0279  1003               	clrc
  3347  027A  0CB9               	rrf	??___flmul+3,f
  3348  027B  0CB8               	rrf	??___flmul+2,f
  3349  027C  0CB7               	rrf	??___flmul+1,f
  3350  027D  0CB6               	rrf	??___flmul,f
  3351  027E                     u2830:
  3352  027E  3EFF               	addlw	-1
  3353  027F  1D03               	skipz
  3354  0280  2A79               	goto	u2835
  3355  0281  0836               	movf	??___flmul,w
  3356  0282  07C2               	addwf	___flmul@prod,f
  3357  0283  0837               	movf	??___flmul+1,w
  3358  0284  1103               	clrz
  3359  0285  1803               	skipnc
  3360  0286  3E01               	addlw	1
  3361  0287  1903               	skipnz
  3362  0288  2A8A               	goto	u2841
  3363  0289  07C3               	addwf	___flmul@prod+1,f
  3364  028A                     u2841:
  3365  028A  0838               	movf	??___flmul+2,w
  3366  028B  1103               	clrz
  3367  028C  1803               	skipnc
  3368  028D  3E01               	addlw	1
  3369  028E  1903               	skipnz
  3370  028F  2A91               	goto	u2842
  3371  0290  07C4               	addwf	___flmul@prod+2,f
  3372  0291                     u2842:
  3373  0291  0839               	movf	??___flmul+3,w
  3374  0292  1103               	clrz
  3375  0293  1803               	skipnc
  3376  0294  3E01               	addlw	1
  3377  0295  1903               	skipnz
  3378  0296  2A98               	goto	u2843
  3379  0297  07C5               	addwf	___flmul@prod+3,f
  3380  0298                     u2843:
  3381  0298                     l2046:
  3382  0298  3008               	movlw	8
  3383  0299  00B6               	movwf	??___flmul
  3384  029A                     u2855:
  3385  029A  1003               	clrc
  3386  029B  0DBD               	rlf	___flmul@grs,f
  3387  029C  0DBE               	rlf	___flmul@grs+1,f
  3388  029D  0DBF               	rlf	___flmul@grs+2,f
  3389  029E  0DC0               	rlf	___flmul@grs+3,f
  3390  029F  0BB6               	decfsz	??___flmul,f
  3391  02A0  2A9A               	goto	u2855
  3392  02A1                     l2048:
  3393  02A1  0841               	movf	___flmul@bexp,w
  3394  02A2  073C               	addwf	___flmul@aexp,w
  3395  02A3  00B6               	movwf	??___flmul
  3396  02A4  01B7               	clrf	??___flmul+1
  3397  02A5  0DB7               	rlf	??___flmul+1,f
  3398  02A6  0836               	movf	??___flmul,w
  3399  02A7  3E82               	addlw	130
  3400  02A8  00C6               	movwf	___flmul@temp
  3401  02A9  0837               	movf	??___flmul+1,w
  3402  02AA  1803               	skipnc
  3403  02AB  3E01               	addlw	1
  3404  02AC  3EFF               	addlw	255
  3405  02AD  00C7               	movwf	___flmul@temp+1
  3406  02AE  2ACC               	goto	l2060
  3407  02AF                     l2050:
  3408  02AF  3001               	movlw	1
  3409  02B0  00B6               	movwf	??___flmul
  3410  02B1                     u2865:
  3411  02B1  1003               	clrc
  3412  02B2  0DC2               	rlf	___flmul@prod,f
  3413  02B3  0DC3               	rlf	___flmul@prod+1,f
  3414  02B4  0DC4               	rlf	___flmul@prod+2,f
  3415  02B5  0DC5               	rlf	___flmul@prod+3,f
  3416  02B6  0BB6               	decfsz	??___flmul,f
  3417  02B7  2AB1               	goto	u2865
  3418  02B8                     l2052:
  3419  02B8  1FC0               	btfss	___flmul@grs+3,7
  3420  02B9  2ABB               	goto	u2871
  3421  02BA  2ABC               	goto	u2870
  3422  02BB                     u2871:
  3423  02BB  2ABD               	goto	l2056
  3424  02BC                     u2870:
  3425  02BC                     l2054:
  3426  02BC  1442               	bsf	___flmul@prod,0
  3427  02BD                     l2056:
  3428  02BD  3001               	movlw	1
  3429  02BE  00B6               	movwf	??___flmul
  3430  02BF                     u2885:
  3431  02BF  1003               	clrc
  3432  02C0  0DBD               	rlf	___flmul@grs,f
  3433  02C1  0DBE               	rlf	___flmul@grs+1,f
  3434  02C2  0DBF               	rlf	___flmul@grs+2,f
  3435  02C3  0DC0               	rlf	___flmul@grs+3,f
  3436  02C4  0BB6               	decfsz	??___flmul,f
  3437  02C5  2ABF               	goto	u2885
  3438  02C6                     l2058:
  3439  02C6  30FF               	movlw	255
  3440  02C7  07C6               	addwf	___flmul@temp,f
  3441  02C8  1803               	skipnc
  3442  02C9  0AC7               	incf	___flmul@temp+1,f
  3443  02CA  30FF               	movlw	255
  3444  02CB  07C7               	addwf	___flmul@temp+1,f
  3445  02CC                     l2060:
  3446  02CC  1FC4               	btfss	___flmul@prod+2,7
  3447  02CD  2ACF               	goto	u2891
  3448  02CE  2AD0               	goto	u2890
  3449  02CF                     u2891:
  3450  02CF  2AAF               	goto	l2050
  3451  02D0                     u2890:
  3452  02D0                     l2062:
  3453  02D0  01BC               	clrf	___flmul@aexp
  3454  02D1                     l2064:
  3455  02D1  1FC0               	btfss	___flmul@grs+3,7
  3456  02D2  2AD4               	goto	u2901
  3457  02D3  2AD5               	goto	u2900
  3458  02D4                     u2901:
  3459  02D4  2AF1               	goto	l2072
  3460  02D5                     u2900:
  3461  02D5                     l2066:
  3462  02D5  30FF               	movlw	255
  3463  02D6  053D               	andwf	___flmul@grs,w
  3464  02D7  00B6               	movwf	??___flmul
  3465  02D8  30FF               	movlw	255
  3466  02D9  053E               	andwf	___flmul@grs+1,w
  3467  02DA  00B7               	movwf	??___flmul+1
  3468  02DB  30FF               	movlw	255
  3469  02DC  053F               	andwf	___flmul@grs+2,w
  3470  02DD  00B8               	movwf	??___flmul+2
  3471  02DE  307F               	movlw	127
  3472  02DF  0540               	andwf	___flmul@grs+3,w
  3473  02E0  00B9               	movwf	??___flmul+3
  3474  02E1  0839               	movf	??___flmul+3,w
  3475  02E2  0438               	iorwf	??___flmul+2,w
  3476  02E3  0437               	iorwf	??___flmul+1,w
  3477  02E4  0436               	iorwf	??___flmul,w
  3478  02E5  1903               	skipnz
  3479  02E6  2AE8               	goto	u2911
  3480  02E7  2AE9               	goto	u2910
  3481  02E8                     u2911:
  3482  02E8  2AEC               	goto	l633
  3483  02E9                     u2910:
  3484  02E9                     l2068:
  3485  02E9  01BC               	clrf	___flmul@aexp
  3486  02EA  0ABC               	incf	___flmul@aexp,f
  3487  02EB  2AF1               	goto	l2072
  3488  02EC                     l633:
  3489  02EC  1C42               	btfss	___flmul@prod,0
  3490  02ED  2AEF               	goto	u2921
  3491  02EE  2AF0               	goto	u2920
  3492  02EF                     u2921:
  3493  02EF  2AF1               	goto	l2072
  3494  02F0                     u2920:
  3495  02F0  2AE9               	goto	l2068
  3496  02F1                     l2072:
  3497  02F1  083C               	movf	___flmul@aexp,w
  3498  02F2  1903               	btfsc	3,2
  3499  02F3  2AF5               	goto	u2931
  3500  02F4  2AF6               	goto	u2930
  3501  02F5                     u2931:
  3502  02F5  2B27               	goto	l2082
  3503  02F6                     u2930:
  3504  02F6                     l2074:
  3505  02F6  3001               	movlw	1
  3506  02F7  07C2               	addwf	___flmul@prod,f
  3507  02F8  3000               	movlw	0
  3508  02F9  1803               	skipnc
  3509  02FA  3001               	movlw	1
  3510  02FB  07C3               	addwf	___flmul@prod+1,f
  3511  02FC  3000               	movlw	0
  3512  02FD  1803               	skipnc
  3513  02FE  3001               	movlw	1
  3514  02FF  07C4               	addwf	___flmul@prod+2,f
  3515  0300  3000               	movlw	0
  3516  0301  1803               	skipnc
  3517  0302  3001               	movlw	1
  3518  0303  07C5               	addwf	___flmul@prod+3,f
  3519  0304                     l2076:
  3520  0304  1C45               	btfss	___flmul@prod+3,0
  3521  0305  2B07               	goto	u2941
  3522  0306  2B08               	goto	u2940
  3523  0307                     u2941:
  3524  0307  2B27               	goto	l2082
  3525  0308                     u2940:
  3526  0308                     l2078:
  3527  0308  0842               	movf	___flmul@prod,w
  3528  0309  00B6               	movwf	??___flmul
  3529  030A  0843               	movf	___flmul@prod+1,w
  3530  030B  00B7               	movwf	??___flmul+1
  3531  030C  0844               	movf	___flmul@prod+2,w
  3532  030D  00B8               	movwf	??___flmul+2
  3533  030E  0845               	movf	___flmul@prod+3,w
  3534  030F  00B9               	movwf	??___flmul+3
  3535  0310  3001               	movlw	1
  3536  0311  00BA               	movwf	??___flmul+4
  3537  0312                     u2955:
  3538  0312  0D39               	rlf	??___flmul+3,w
  3539  0313  0CB9               	rrf	??___flmul+3,f
  3540  0314  0CB8               	rrf	??___flmul+2,f
  3541  0315  0CB7               	rrf	??___flmul+1,f
  3542  0316  0CB6               	rrf	??___flmul,f
  3543  0317                     u2950:
  3544  0317  0BBA               	decfsz	??___flmul+4,f
  3545  0318  2B12               	goto	u2955
  3546  0319  0839               	movf	??___flmul+3,w
  3547  031A  00C5               	movwf	___flmul@prod+3
  3548  031B  0838               	movf	??___flmul+2,w
  3549  031C  00C4               	movwf	___flmul@prod+2
  3550  031D  0837               	movf	??___flmul+1,w
  3551  031E  00C3               	movwf	___flmul@prod+1
  3552  031F  0836               	movf	??___flmul,w
  3553  0320  00C2               	movwf	___flmul@prod
  3554  0321                     l2080:
  3555  0321  3001               	movlw	1
  3556  0322  07C6               	addwf	___flmul@temp,f
  3557  0323  1803               	skipnc
  3558  0324  0AC7               	incf	___flmul@temp+1,f
  3559  0325  3000               	movlw	0
  3560  0326  07C7               	addwf	___flmul@temp+1,f
  3561  0327                     l2082:
  3562  0327  0847               	movf	___flmul@temp+1,w
  3563  0328  3A80               	xorlw	128
  3564  0329  00FF               	movwf	btemp+1
  3565  032A  3080               	movlw	128
  3566  032B  027F               	subwf	btemp+1,w
  3567  032C  1D03               	skipz
  3568  032D  2B30               	goto	u2965
  3569  032E  30FF               	movlw	255
  3570  032F  0246               	subwf	___flmul@temp,w
  3571  0330                     u2965:
  3572  0330  1C03               	skipc
  3573  0331  2B33               	goto	u2961
  3574  0332  2B34               	goto	u2960
  3575  0333                     u2961:
  3576  0333  2B3F               	goto	l2086
  3577  0334                     u2960:
  3578  0334                     l2084:
  3579  0334  307F               	movlw	127
  3580  0335  1283               	bcf	3,5	;RP0=0, select bank0
  3581  0336  1303               	bcf	3,6	;RP1=0, select bank0
  3582  0337  00C5               	movwf	___flmul@prod+3
  3583  0338  3080               	movlw	128
  3584  0339  00C4               	movwf	___flmul@prod+2
  3585  033A  3000               	movlw	0
  3586  033B  00C3               	movwf	___flmul@prod+1
  3587  033C  3000               	movlw	0
  3588  033D  00C2               	movwf	___flmul@prod
  3589  033E  2B74               	goto	l639
  3590  033F                     l2086:
  3591  033F  1283               	bcf	3,5	;RP0=0, select bank0
  3592  0340  1303               	bcf	3,6	;RP1=0, select bank0
  3593  0341  0847               	movf	___flmul@temp+1,w
  3594  0342  3A80               	xorlw	128
  3595  0343  00FF               	movwf	btemp+1
  3596  0344  3080               	movlw	128
  3597  0345  027F               	subwf	btemp+1,w
  3598  0346  1D03               	skipz
  3599  0347  2B4A               	goto	u2975
  3600  0348  3001               	movlw	1
  3601  0349  0246               	subwf	___flmul@temp,w
  3602  034A                     u2975:
  3603  034A  1803               	skipnc
  3604  034B  2B4D               	goto	u2971
  3605  034C  2B4E               	goto	u2970
  3606  034D                     u2971:
  3607  034D  2B5A               	goto	l2092
  3608  034E                     u2970:
  3609  034E                     l2088:
  3610  034E  3000               	movlw	0
  3611  034F  1283               	bcf	3,5	;RP0=0, select bank0
  3612  0350  1303               	bcf	3,6	;RP1=0, select bank0
  3613  0351  00C5               	movwf	___flmul@prod+3
  3614  0352  3000               	movlw	0
  3615  0353  00C4               	movwf	___flmul@prod+2
  3616  0354  3000               	movlw	0
  3617  0355  00C3               	movwf	___flmul@prod+1
  3618  0356  3000               	movlw	0
  3619  0357  00C2               	movwf	___flmul@prod
  3620  0358                     l2090:
  3621  0358  01BB               	clrf	___flmul@sign
  3622  0359  2B74               	goto	l639
  3623  035A                     l2092:
  3624  035A  1283               	bcf	3,5	;RP0=0, select bank0
  3625  035B  1303               	bcf	3,6	;RP1=0, select bank0
  3626  035C  0846               	movf	___flmul@temp,w
  3627  035D  00B6               	movwf	??___flmul
  3628  035E  0836               	movf	??___flmul,w
  3629  035F  00C1               	movwf	___flmul@bexp
  3630  0360  30FF               	movlw	255
  3631  0361  05C2               	andwf	___flmul@prod,f
  3632  0362  30FF               	movlw	255
  3633  0363  05C3               	andwf	___flmul@prod+1,f
  3634  0364  307F               	movlw	127
  3635  0365  05C4               	andwf	___flmul@prod+2,f
  3636  0366  3000               	movlw	0
  3637  0367  05C5               	andwf	___flmul@prod+3,f
  3638  0368                     l2094:
  3639  0368  1C41               	btfss	___flmul@bexp,0
  3640  0369  2B6B               	goto	u2981
  3641  036A  2B6C               	goto	u2980
  3642  036B                     u2981:
  3643  036B  2B6D               	goto	l2098
  3644  036C                     u2980:
  3645  036C                     l2096:
  3646  036C  17C4               	bsf	___flmul@prod+2,7
  3647  036D                     l2098:
  3648  036D  0841               	movf	___flmul@bexp,w
  3649  036E  00B6               	movwf	??___flmul
  3650  036F  1003               	clrc
  3651  0370  0C36               	rrf	??___flmul,w
  3652  0371  00B7               	movwf	??___flmul+1
  3653  0372  0837               	movf	??___flmul+1,w
  3654  0373  00C5               	movwf	___flmul@prod+3
  3655  0374                     l639:
  3656  0374  083B               	movf	___flmul@sign,w
  3657  0375  00B6               	movwf	??___flmul
  3658  0376  0836               	movf	??___flmul,w
  3659  0377  04C5               	iorwf	___flmul@prod+3,f
  3660  0378                     l2100:
  3661  0378  0845               	movf	___flmul@prod+3,w
  3662  0379  00B1               	movwf	?___flmul+3
  3663  037A  0844               	movf	___flmul@prod+2,w
  3664  037B  00B0               	movwf	?___flmul+2
  3665  037C  0843               	movf	___flmul@prod+1,w
  3666  037D  00AF               	movwf	?___flmul+1
  3667  037E  0842               	movf	___flmul@prod,w
  3668  037F  00AE               	movwf	?___flmul
  3669  0380                     l627:
  3670  0380  0008               	return
  3671  0381                     __end_of___flmul:
  3672                           
  3673                           	psect	text14
  3674  0F55                     __ptext14:	
  3675 ;; *************** function __Umul8_16 *****************
  3676 ;; Defined at:
  3677 ;;		line 4 in file "C:\Program Files\Microchip\xc8\v2.31\pic\sources\c90\common\Umul8_16.c"
  3678 ;; Parameters:    Size  Location     Type
  3679 ;;  multiplier      1    wreg     unsigned char 
  3680 ;;  multiplicand    1    4[COMMON] unsigned char 
  3681 ;; Auto vars:     Size  Location     Type
  3682 ;;  multiplier      1    6[BANK0 ] unsigned char 
  3683 ;;  word_mpld       2    4[BANK0 ] unsigned int 
  3684 ;;  product         2    2[BANK0 ] unsigned int 
  3685 ;; Return value:  Size  Location     Type
  3686 ;;                  2    4[COMMON] unsigned int 
  3687 ;; Registers used:
  3688 ;;		wreg, status,2, status,0
  3689 ;; Tracked objects:
  3690 ;;		On entry : 0/0
  3691 ;;		On exit  : 0/0
  3692 ;;		Unchanged: 0/0
  3693 ;; Data sizes:     COMMON   BANK0   BANK1   BANK3   BANK2
  3694 ;;      Params:         2       0       0       0       0
  3695 ;;      Locals:         0       5       0       0       0
  3696 ;;      Temps:          0       2       0       0       0
  3697 ;;      Totals:         2       7       0       0       0
  3698 ;;Total ram usage:        9 bytes
  3699 ;; Hardware stack levels used:    1
  3700 ;; Hardware stack levels required when called:    1
  3701 ;; This function calls:
  3702 ;;		Nothing
  3703 ;; This function is called by:
  3704 ;;		___flmul
  3705 ;; This function uses a non-reentrant model
  3706 ;;
  3707                           
  3708                           
  3709                           ;psect for function __Umul8_16
  3710  0F55                     __Umul8_16:
  3711                           
  3712                           ;incstack = 0
  3713                           ; Regs used in __Umul8_16: [wreg+status,2+status,0]
  3714                           ;__Umul8_16@multiplier stored from wreg
  3715  0F55  1283               	bcf	3,5	;RP0=0, select bank0
  3716  0F56  1303               	bcf	3,6	;RP1=0, select bank0
  3717  0F57  00A6               	movwf	__Umul8_16@multiplier
  3718  0F58                     l1824:
  3719  0F58  01A2               	clrf	__Umul8_16@product
  3720  0F59  01A3               	clrf	__Umul8_16@product+1
  3721  0F5A                     l1826:
  3722  0F5A  0874               	movf	__Umul8_16@multiplicand,w
  3723  0F5B  00A0               	movwf	??__Umul8_16
  3724  0F5C  01A1               	clrf	??__Umul8_16+1
  3725  0F5D  0820               	movf	??__Umul8_16,w
  3726  0F5E  00A4               	movwf	__Umul8_16@word_mpld
  3727  0F5F  0821               	movf	??__Umul8_16+1,w
  3728  0F60  00A5               	movwf	__Umul8_16@word_mpld+1
  3729  0F61                     l1828:
  3730  0F61  1C26               	btfss	__Umul8_16@multiplier,0
  3731  0F62  2F64               	goto	u2241
  3732  0F63  2F65               	goto	u2240
  3733  0F64                     u2241:
  3734  0F64  2F6B               	goto	l646
  3735  0F65                     u2240:
  3736  0F65                     l1830:
  3737  0F65  0824               	movf	__Umul8_16@word_mpld,w
  3738  0F66  07A2               	addwf	__Umul8_16@product,f
  3739  0F67  1803               	skipnc
  3740  0F68  0AA3               	incf	__Umul8_16@product+1,f
  3741  0F69  0825               	movf	__Umul8_16@word_mpld+1,w
  3742  0F6A  07A3               	addwf	__Umul8_16@product+1,f
  3743  0F6B                     l646:
  3744  0F6B  3001               	movlw	1
  3745  0F6C                     u2255:
  3746  0F6C  1003               	clrc
  3747  0F6D  0DA4               	rlf	__Umul8_16@word_mpld,f
  3748  0F6E  0DA5               	rlf	__Umul8_16@word_mpld+1,f
  3749  0F6F  3EFF               	addlw	-1
  3750  0F70  1D03               	skipz
  3751  0F71  2F6C               	goto	u2255
  3752  0F72  1003               	clrc
  3753  0F73  0CA6               	rrf	__Umul8_16@multiplier,f
  3754  0F74                     l1832:
  3755  0F74  0826               	movf	__Umul8_16@multiplier,w
  3756  0F75  1D03               	btfss	3,2
  3757  0F76  2F78               	goto	u2261
  3758  0F77  2F79               	goto	u2260
  3759  0F78                     u2261:
  3760  0F78  2F61               	goto	l1828
  3761  0F79                     u2260:
  3762  0F79                     l1834:
  3763  0F79  0823               	movf	__Umul8_16@product+1,w
  3764  0F7A  00F5               	movwf	?__Umul8_16+1
  3765  0F7B  0822               	movf	__Umul8_16@product,w
  3766  0F7C  00F4               	movwf	?__Umul8_16
  3767  0F7D                     l648:
  3768  0F7D  0008               	return
  3769  0F7E                     __end_of__Umul8_16:
  3770                           
  3771                           	psect	text15
  3772  0786                     __ptext15:	
  3773 ;; *************** function _UARTSendString *****************
  3774 ;; Defined at:
  3775 ;;		line 49 in file "USART.c"
  3776 ;; Parameters:    Size  Location     Type
  3777 ;;  str             2    0[BANK0 ] PTR const unsigned char 
  3778 ;;		 -> NULL(0), adcToString@salida(5), STR_3(2), STR_2(11), 
  3779 ;;		 -> STR_1(8), 
  3780 ;;  max_length      1    2[BANK0 ] const unsigned char 
  3781 ;; Auto vars:     Size  Location     Type
  3782 ;;  i               2    6[BANK0 ] int 
  3783 ;; Return value:  Size  Location     Type
  3784 ;;                  1    wreg      void 
  3785 ;; Registers used:
  3786 ;;		wreg, fsr0l, fsr0h, status,2, status,0, btemp+1, pclath, cstack
  3787 ;; Tracked objects:
  3788 ;;		On entry : 0/0
  3789 ;;		On exit  : 0/0
  3790 ;;		Unchanged: 0/0
  3791 ;; Data sizes:     COMMON   BANK0   BANK1   BANK3   BANK2
  3792 ;;      Params:         0       3       0       0       0
  3793 ;;      Locals:         0       2       0       0       0
  3794 ;;      Temps:          0       3       0       0       0
  3795 ;;      Totals:         0       8       0       0       0
  3796 ;;Total ram usage:        8 bytes
  3797 ;; Hardware stack levels used:    1
  3798 ;; Hardware stack levels required when called:    2
  3799 ;; This function calls:
  3800 ;;		_UARTSendChar
  3801 ;; This function is called by:
  3802 ;;		_main
  3803 ;; This function uses a non-reentrant model
  3804 ;;
  3805                           
  3806                           
  3807                           ;psect for function _UARTSendString
  3808  0786                     _UARTSendString:
  3809  0786                     l2178:	
  3810                           ;incstack = 0
  3811                           ; Regs used in _UARTSendString: [wreg-fsr0h+status,2+status,0+btemp+1+pclath+cstack]
  3812                           
  3813                           
  3814                           ;USART.c: 50:     int i = 0;
  3815  0786  1283               	bcf	3,5	;RP0=0, select bank0
  3816  0787  1303               	bcf	3,6	;RP1=0, select bank0
  3817  0788  01A6               	clrf	UARTSendString@i
  3818  0789  01A7               	clrf	UARTSendString@i+1
  3819                           
  3820                           ;USART.c: 51:     for (i=0 ; i<max_length && str[i]!='\0' ; i++) {
  3821  078A  01A6               	clrf	UARTSendString@i
  3822  078B  01A7               	clrf	UARTSendString@i+1
  3823  078C  2FB1               	goto	l2184
  3824  078D                     l2180:
  3825                           
  3826                           ;USART.c: 52:         UARTSendChar(str[i]);
  3827  078D  0826               	movf	UARTSendString@i,w
  3828  078E  0720               	addwf	UARTSendString@str,w
  3829  078F  00A4               	movwf	??_UARTSendString+1
  3830  0790  0821               	movf	UARTSendString@str+1,w
  3831  0791  00A3               	movwf	??_UARTSendString
  3832  0792  1803               	skipnc
  3833  0793  0AA3               	incf	??_UARTSendString,f
  3834  0794  1FA6               	btfss	UARTSendString@i,7
  3835  0795  2F97               	goto	u3160
  3836  0796  03A3               	decf	??_UARTSendString,f
  3837  0797                     u3160:
  3838  0797  1283               	bcf	3,5	;RP0=0, select bank0
  3839  0798  1303               	bcf	3,6	;RP1=0, select bank0
  3840  0799  0823               	movf	??_UARTSendString,w
  3841  079A  00A5               	movwf	??_UARTSendString+2
  3842  079B  0825               	movf	??_UARTSendString+2,w
  3843  079C  00FF               	movwf	btemp+1
  3844  079D  0824               	movf	??_UARTSendString+1,w
  3845  079E  0084               	movwf	4
  3846  079F  120A  158A  2000  120A  118A  	fcall	stringtab
  3847  07A4  120A  158A  26E9  120A  118A  	fcall	_UARTSendChar
  3848  07A9                     l2182:
  3849                           
  3850                           ;USART.c: 53:     }
  3851  07A9  3001               	movlw	1
  3852  07AA  1283               	bcf	3,5	;RP0=0, select bank0
  3853  07AB  1303               	bcf	3,6	;RP1=0, select bank0
  3854  07AC  07A6               	addwf	UARTSendString@i,f
  3855  07AD  1803               	skipnc
  3856  07AE  0AA7               	incf	UARTSendString@i+1,f
  3857  07AF  3000               	movlw	0
  3858  07B0  07A7               	addwf	UARTSendString@i+1,f
  3859  07B1                     l2184:
  3860  07B1  0827               	movf	UARTSendString@i+1,w
  3861  07B2  3A80               	xorlw	128
  3862  07B3  00A3               	movwf	??_UARTSendString
  3863  07B4  3080               	movlw	128
  3864  07B5  0223               	subwf	??_UARTSendString,w
  3865  07B6  1D03               	skipz
  3866  07B7  2FBA               	goto	u3175
  3867  07B8  0822               	movf	UARTSendString@max_length,w
  3868  07B9  0226               	subwf	UARTSendString@i,w
  3869  07BA                     u3175:
  3870  07BA  1803               	skipnc
  3871  07BB  2FBD               	goto	u3171
  3872  07BC  2FBE               	goto	u3170
  3873  07BD                     u3171:
  3874  07BD  2FDC               	goto	l33
  3875  07BE                     u3170:
  3876  07BE                     l2186:
  3877  07BE  1283               	bcf	3,5	;RP0=0, select bank0
  3878  07BF  1303               	bcf	3,6	;RP1=0, select bank0
  3879  07C0  0826               	movf	UARTSendString@i,w
  3880  07C1  0720               	addwf	UARTSendString@str,w
  3881  07C2  00A4               	movwf	??_UARTSendString+1
  3882  07C3  0821               	movf	UARTSendString@str+1,w
  3883  07C4  00A3               	movwf	??_UARTSendString
  3884  07C5  1803               	skipnc
  3885  07C6  0AA3               	incf	??_UARTSendString,f
  3886  07C7  1FA6               	btfss	UARTSendString@i,7
  3887  07C8  2FCA               	goto	u3180
  3888  07C9  03A3               	decf	??_UARTSendString,f
  3889  07CA                     u3180:
  3890  07CA  1283               	bcf	3,5	;RP0=0, select bank0
  3891  07CB  1303               	bcf	3,6	;RP1=0, select bank0
  3892  07CC  0823               	movf	??_UARTSendString,w
  3893  07CD  00A5               	movwf	??_UARTSendString+2
  3894  07CE  0825               	movf	??_UARTSendString+2,w
  3895  07CF  00FF               	movwf	btemp+1
  3896  07D0  0824               	movf	??_UARTSendString+1,w
  3897  07D1  0084               	movwf	4
  3898  07D2  120A  158A  2000  120A  118A  	fcall	stringtab
  3899  07D7  3A00               	xorlw	0
  3900  07D8  1D03               	skipz
  3901  07D9  2FDB               	goto	u3191
  3902  07DA  2FDC               	goto	u3190
  3903  07DB                     u3191:
  3904  07DB  2F8D               	goto	l2180
  3905  07DC                     u3190:
  3906  07DC                     l33:
  3907  07DC  0008               	return
  3908  07DD                     __end_of_UARTSendString:
  3909                           
  3910                           	psect	text16
  3911  0EE9                     __ptext16:	
  3912 ;; *************** function _UARTSendChar *****************
  3913 ;; Defined at:
  3914 ;;		line 39 in file "USART.c"
  3915 ;; Parameters:    Size  Location     Type
  3916 ;;  c               1    wreg     const unsigned char 
  3917 ;; Auto vars:     Size  Location     Type
  3918 ;;  c               1    4[COMMON] const unsigned char 
  3919 ;; Return value:  Size  Location     Type
  3920 ;;                  1    wreg      void 
  3921 ;; Registers used:
  3922 ;;		wreg
  3923 ;; Tracked objects:
  3924 ;;		On entry : 0/0
  3925 ;;		On exit  : 0/0
  3926 ;;		Unchanged: 0/0
  3927 ;; Data sizes:     COMMON   BANK0   BANK1   BANK3   BANK2
  3928 ;;      Params:         0       0       0       0       0
  3929 ;;      Locals:         1       0       0       0       0
  3930 ;;      Temps:          0       0       0       0       0
  3931 ;;      Totals:         1       0       0       0       0
  3932 ;;Total ram usage:        1 bytes
  3933 ;; Hardware stack levels used:    1
  3934 ;; Hardware stack levels required when called:    1
  3935 ;; This function calls:
  3936 ;;		Nothing
  3937 ;; This function is called by:
  3938 ;;		_UARTSendString
  3939 ;; This function uses a non-reentrant model
  3940 ;;
  3941                           
  3942                           
  3943                           ;psect for function _UARTSendChar
  3944  0EE9                     _UARTSendChar:
  3945                           
  3946                           ;incstack = 0
  3947                           ; Regs used in _UARTSendChar: [wreg]
  3948                           ;UARTSendChar@c stored from wreg
  3949  0EE9  00F4               	movwf	UARTSendChar@c
  3950  0EEA                     l1838:
  3951  0EEA                     l22:	
  3952                           ;USART.c: 40:     while (TXSTAbits.TRMT == 0);
  3953                           
  3954  0EEA  1683               	bsf	3,5	;RP0=1, select bank1
  3955  0EEB  1303               	bcf	3,6	;RP1=0, select bank1
  3956  0EEC  1C98               	btfss	24,1	;volatile
  3957  0EED  2EEF               	goto	u2271
  3958  0EEE  2EF0               	goto	u2270
  3959  0EEF                     u2271:
  3960  0EEF  2EEA               	goto	l22
  3961  0EF0                     u2270:
  3962  0EF0                     l1840:
  3963                           
  3964                           ;USART.c: 41:     TXREG = c;
  3965  0EF0  0874               	movf	UARTSendChar@c,w
  3966  0EF1  1283               	bcf	3,5	;RP0=0, select bank0
  3967  0EF2  1303               	bcf	3,6	;RP1=0, select bank0
  3968  0EF3  0099               	movwf	25	;volatile
  3969  0EF4                     l25:
  3970  0EF4  0008               	return
  3971  0EF5                     __end_of_UARTSendChar:
  3972                           
  3973                           	psect	text17
  3974  06AB                     __ptext17:	
  3975 ;; *************** function _UARTInit *****************
  3976 ;; Defined at:
  3977 ;;		line 8 in file "USART.c"
  3978 ;; Parameters:    Size  Location     Type
  3979 ;;  baud_rate       4   13[BANK0 ] const unsigned long 
  3980 ;;  BRGH            1   17[BANK0 ] const unsigned char 
  3981 ;; Auto vars:     Size  Location     Type
  3982 ;;		None
  3983 ;; Return value:  Size  Location     Type
  3984 ;;                  1    wreg      void 
  3985 ;; Registers used:
  3986 ;;		wreg, status,2, status,0, pclath, cstack
  3987 ;; Tracked objects:
  3988 ;;		On entry : 0/0
  3989 ;;		On exit  : 0/0
  3990 ;;		Unchanged: 0/0
  3991 ;; Data sizes:     COMMON   BANK0   BANK1   BANK3   BANK2
  3992 ;;      Params:         0       5       0       0       0
  3993 ;;      Locals:         0       0       0       0       0
  3994 ;;      Temps:          0       4       0       0       0
  3995 ;;      Totals:         0       9       0       0       0
  3996 ;;Total ram usage:        9 bytes
  3997 ;; Hardware stack levels used:    1
  3998 ;; Hardware stack levels required when called:    2
  3999 ;; This function calls:
  4000 ;;		___lldiv
  4001 ;; This function is called by:
  4002 ;;		_main
  4003 ;; This function uses a non-reentrant model
  4004 ;;
  4005                           
  4006                           
  4007                           ;psect for function _UARTInit
  4008  06AB                     _UARTInit:
  4009  06AB                     l2148:	
  4010                           ;incstack = 0
  4011                           ; Regs used in _UARTInit: [wreg+status,2+status,0+pclath+cstack]
  4012                           
  4013                           
  4014                           ;USART.c: 10:     if (BRGH == 0) {
  4015  06AB  1283               	bcf	3,5	;RP0=0, select bank0
  4016  06AC  1303               	bcf	3,6	;RP1=0, select bank0
  4017  06AD  0831               	movf	UARTInit@BRGH,w
  4018  06AE  1D03               	btfss	3,2
  4019  06AF  2EB1               	goto	u3131
  4020  06B0  2EB2               	goto	u3130
  4021  06B1                     u3131:
  4022  06B1  2EE1               	goto	l2154
  4023  06B2                     u3130:
  4024  06B2                     l2150:
  4025                           
  4026                           ;USART.c: 11:         SPBRG = 4000000/(64*baud_rate) - 1;
  4027  06B2  082D               	movf	UARTInit@baud_rate,w
  4028  06B3  00B2               	movwf	??_UARTInit
  4029  06B4  082E               	movf	UARTInit@baud_rate+1,w
  4030  06B5  00B3               	movwf	??_UARTInit+1
  4031  06B6  082F               	movf	UARTInit@baud_rate+2,w
  4032  06B7  00B4               	movwf	??_UARTInit+2
  4033  06B8  0830               	movf	UARTInit@baud_rate+3,w
  4034  06B9  00B5               	movwf	??_UARTInit+3
  4035  06BA  3006               	movlw	6
  4036  06BB                     u3145:
  4037  06BB  1003               	clrc
  4038  06BC  0DB2               	rlf	??_UARTInit,f
  4039  06BD  0DB3               	rlf	??_UARTInit+1,f
  4040  06BE  0DB4               	rlf	??_UARTInit+2,f
  4041  06BF  0DB5               	rlf	??_UARTInit+3,f
  4042  06C0                     u3140:
  4043  06C0  3EFF               	addlw	-1
  4044  06C1  1D03               	skipz
  4045  06C2  2EBB               	goto	u3145
  4046  06C3  0835               	movf	??_UARTInit+3,w
  4047  06C4  00A3               	movwf	___lldiv@divisor+3
  4048  06C5  0834               	movf	??_UARTInit+2,w
  4049  06C6  00A2               	movwf	___lldiv@divisor+2
  4050  06C7  0833               	movf	??_UARTInit+1,w
  4051  06C8  00A1               	movwf	___lldiv@divisor+1
  4052  06C9  0832               	movf	??_UARTInit,w
  4053  06CA  00A0               	movwf	___lldiv@divisor
  4054  06CB  3000               	movlw	0
  4055  06CC  00A7               	movwf	___lldiv@dividend+3
  4056  06CD  303D               	movlw	61
  4057  06CE  00A6               	movwf	___lldiv@dividend+2
  4058  06CF  3009               	movlw	9
  4059  06D0  00A5               	movwf	___lldiv@dividend+1
  4060  06D1  3000               	movlw	0
  4061  06D2  00A4               	movwf	___lldiv@dividend
  4062  06D3  120A  118A  271E  120A  118A  	fcall	___lldiv
  4063  06D8  1283               	bcf	3,5	;RP0=0, select bank0
  4064  06D9  1303               	bcf	3,6	;RP1=0, select bank0
  4065  06DA  0820               	movf	?___lldiv,w
  4066  06DB  3EFF               	addlw	255
  4067  06DC  1683               	bsf	3,5	;RP0=1, select bank1
  4068  06DD  1303               	bcf	3,6	;RP1=0, select bank1
  4069  06DE  0099               	movwf	25	;volatile
  4070  06DF                     l2152:
  4071                           
  4072                           ;USART.c: 12:         TXSTAbits.BRGH = 0;
  4073  06DF  1118               	bcf	24,2	;volatile
  4074                           
  4075                           ;USART.c: 13:     } else {
  4076  06E0  2F0F               	goto	l2158
  4077  06E1                     l2154:
  4078                           
  4079                           ;USART.c: 14:         SPBRG = 4000000/(16*baud_rate) - 1;
  4080  06E1  082D               	movf	UARTInit@baud_rate,w
  4081  06E2  00B2               	movwf	??_UARTInit
  4082  06E3  082E               	movf	UARTInit@baud_rate+1,w
  4083  06E4  00B3               	movwf	??_UARTInit+1
  4084  06E5  082F               	movf	UARTInit@baud_rate+2,w
  4085  06E6  00B4               	movwf	??_UARTInit+2
  4086  06E7  0830               	movf	UARTInit@baud_rate+3,w
  4087  06E8  00B5               	movwf	??_UARTInit+3
  4088  06E9  3004               	movlw	4
  4089  06EA                     u3155:
  4090  06EA  1003               	clrc
  4091  06EB  0DB2               	rlf	??_UARTInit,f
  4092  06EC  0DB3               	rlf	??_UARTInit+1,f
  4093  06ED  0DB4               	rlf	??_UARTInit+2,f
  4094  06EE  0DB5               	rlf	??_UARTInit+3,f
  4095  06EF                     u3150:
  4096  06EF  3EFF               	addlw	-1
  4097  06F0  1D03               	skipz
  4098  06F1  2EEA               	goto	u3155
  4099  06F2  0835               	movf	??_UARTInit+3,w
  4100  06F3  00A3               	movwf	___lldiv@divisor+3
  4101  06F4  0834               	movf	??_UARTInit+2,w
  4102  06F5  00A2               	movwf	___lldiv@divisor+2
  4103  06F6  0833               	movf	??_UARTInit+1,w
  4104  06F7  00A1               	movwf	___lldiv@divisor+1
  4105  06F8  0832               	movf	??_UARTInit,w
  4106  06F9  00A0               	movwf	___lldiv@divisor
  4107  06FA  3000               	movlw	0
  4108  06FB  00A7               	movwf	___lldiv@dividend+3
  4109  06FC  303D               	movlw	61
  4110  06FD  00A6               	movwf	___lldiv@dividend+2
  4111  06FE  3009               	movlw	9
  4112  06FF  00A5               	movwf	___lldiv@dividend+1
  4113  0700  3000               	movlw	0
  4114  0701  00A4               	movwf	___lldiv@dividend
  4115  0702  120A  118A  271E  120A  118A  	fcall	___lldiv
  4116  0707  1283               	bcf	3,5	;RP0=0, select bank0
  4117  0708  1303               	bcf	3,6	;RP1=0, select bank0
  4118  0709  0820               	movf	?___lldiv,w
  4119  070A  3EFF               	addlw	255
  4120  070B  1683               	bsf	3,5	;RP0=1, select bank1
  4121  070C  1303               	bcf	3,6	;RP1=0, select bank1
  4122  070D  0099               	movwf	25	;volatile
  4123  070E                     l2156:
  4124                           
  4125                           ;USART.c: 15:         TXSTAbits.BRGH = 1;
  4126  070E  1518               	bsf	24,2	;volatile
  4127  070F                     l2158:
  4128                           
  4129                           ;USART.c: 19:     TXSTAbits.TX9 = 0;
  4130  070F  1318               	bcf	24,6	;volatile
  4131  0710                     l2160:
  4132                           
  4133                           ;USART.c: 20:     TXSTAbits.TXEN = 1;
  4134  0710  1698               	bsf	24,5	;volatile
  4135  0711                     l2162:
  4136                           
  4137                           ;USART.c: 21:     TXSTAbits.SYNC = 0;
  4138  0711  1218               	bcf	24,4	;volatile
  4139  0712                     l2164:
  4140                           
  4141                           ;USART.c: 24:     RCSTAbits.SPEN = 1;
  4142  0712  1283               	bcf	3,5	;RP0=0, select bank0
  4143  0713  1303               	bcf	3,6	;RP1=0, select bank0
  4144  0714  1798               	bsf	24,7	;volatile
  4145  0715                     l2166:
  4146                           
  4147                           ;USART.c: 25:     RCSTAbits.RX9 = 0;
  4148  0715  1318               	bcf	24,6	;volatile
  4149  0716                     l2168:
  4150                           
  4151                           ;USART.c: 26:     RCSTAbits.CREN = 1;
  4152  0716  1618               	bsf	24,4	;volatile
  4153  0717                     l2170:
  4154                           
  4155                           ;USART.c: 27:     RCSTAbits.FERR = 0;
  4156  0717  1118               	bcf	24,2	;volatile
  4157  0718                     l2172:
  4158                           
  4159                           ;USART.c: 28:     RCSTAbits.OERR = 0;
  4160  0718  1098               	bcf	24,1	;volatile
  4161  0719                     l2174:
  4162                           
  4163                           ;USART.c: 31:     TRISCbits.TRISC7 = 1;
  4164  0719  1683               	bsf	3,5	;RP0=1, select bank1
  4165  071A  1303               	bcf	3,6	;RP1=0, select bank1
  4166  071B  1787               	bsf	7,7	;volatile
  4167  071C                     l2176:
  4168                           
  4169                           ;USART.c: 32:     TRISCbits.TRISC6 = 0;
  4170  071C  1307               	bcf	7,6	;volatile
  4171  071D                     l19:
  4172  071D  0008               	return
  4173  071E                     __end_of_UARTInit:
  4174                           
  4175                           	psect	text18
  4176  071E                     __ptext18:	
  4177 ;; *************** function ___lldiv *****************
  4178 ;; Defined at:
  4179 ;;		line 5 in file "C:\Program Files\Microchip\xc8\v2.31\pic\sources\c90\common\__lldiv.c"
  4180 ;; Parameters:    Size  Location     Type
  4181 ;;  divisor         4    0[BANK0 ] unsigned long 
  4182 ;;  dividend        4    4[BANK0 ] unsigned long 
  4183 ;; Auto vars:     Size  Location     Type
  4184 ;;  quotient        4    8[BANK0 ] unsigned long 
  4185 ;;  counter         1   12[BANK0 ] unsigned char 
  4186 ;; Return value:  Size  Location     Type
  4187 ;;                  4    0[BANK0 ] unsigned long 
  4188 ;; Registers used:
  4189 ;;		wreg, status,2, status,0
  4190 ;; Tracked objects:
  4191 ;;		On entry : 0/0
  4192 ;;		On exit  : 0/0
  4193 ;;		Unchanged: 0/0
  4194 ;; Data sizes:     COMMON   BANK0   BANK1   BANK3   BANK2
  4195 ;;      Params:         0       8       0       0       0
  4196 ;;      Locals:         0       5       0       0       0
  4197 ;;      Temps:          1       0       0       0       0
  4198 ;;      Totals:         1      13       0       0       0
  4199 ;;Total ram usage:       14 bytes
  4200 ;; Hardware stack levels used:    1
  4201 ;; Hardware stack levels required when called:    1
  4202 ;; This function calls:
  4203 ;;		Nothing
  4204 ;; This function is called by:
  4205 ;;		_UARTInit
  4206 ;; This function uses a non-reentrant model
  4207 ;;
  4208                           
  4209                           
  4210                           ;psect for function ___lldiv
  4211  071E                     ___lldiv:
  4212  071E                     l1856:	
  4213                           ;incstack = 0
  4214                           ; Regs used in ___lldiv: [wreg+status,2+status,0]
  4215                           
  4216  071E  3000               	movlw	0
  4217  071F  1283               	bcf	3,5	;RP0=0, select bank0
  4218  0720  1303               	bcf	3,6	;RP1=0, select bank0
  4219  0721  00AB               	movwf	___lldiv@quotient+3
  4220  0722  3000               	movlw	0
  4221  0723  00AA               	movwf	___lldiv@quotient+2
  4222  0724  3000               	movlw	0
  4223  0725  00A9               	movwf	___lldiv@quotient+1
  4224  0726  3000               	movlw	0
  4225  0727  00A8               	movwf	___lldiv@quotient
  4226  0728  0823               	movf	___lldiv@divisor+3,w
  4227  0729  0422               	iorwf	___lldiv@divisor+2,w
  4228  072A  0421               	iorwf	___lldiv@divisor+1,w
  4229  072B  0420               	iorwf	___lldiv@divisor,w
  4230  072C  1903               	skipnz
  4231  072D  2F2F               	goto	u2321
  4232  072E  2F30               	goto	u2320
  4233  072F                     u2321:
  4234  072F  2F7D               	goto	l1876
  4235  0730                     u2320:
  4236  0730                     l1858:
  4237  0730  01AC               	clrf	___lldiv@counter
  4238  0731  0AAC               	incf	___lldiv@counter,f
  4239  0732  2F40               	goto	l1862
  4240  0733                     l1860:
  4241  0733  3001               	movlw	1
  4242  0734  00F4               	movwf	??___lldiv
  4243  0735                     u2335:
  4244  0735  1003               	clrc
  4245  0736  0DA0               	rlf	___lldiv@divisor,f
  4246  0737  0DA1               	rlf	___lldiv@divisor+1,f
  4247  0738  0DA2               	rlf	___lldiv@divisor+2,f
  4248  0739  0DA3               	rlf	___lldiv@divisor+3,f
  4249  073A  0BF4               	decfsz	??___lldiv,f
  4250  073B  2F35               	goto	u2335
  4251  073C  3001               	movlw	1
  4252  073D  00F4               	movwf	??___lldiv
  4253  073E  0874               	movf	??___lldiv,w
  4254  073F  07AC               	addwf	___lldiv@counter,f
  4255  0740                     l1862:
  4256  0740  1FA3               	btfss	___lldiv@divisor+3,7
  4257  0741  2F43               	goto	u2341
  4258  0742  2F44               	goto	u2340
  4259  0743                     u2341:
  4260  0743  2F33               	goto	l1860
  4261  0744                     u2340:
  4262  0744                     l1864:
  4263  0744  3001               	movlw	1
  4264  0745  00F4               	movwf	??___lldiv
  4265  0746                     u2355:
  4266  0746  1003               	clrc
  4267  0747  0DA8               	rlf	___lldiv@quotient,f
  4268  0748  0DA9               	rlf	___lldiv@quotient+1,f
  4269  0749  0DAA               	rlf	___lldiv@quotient+2,f
  4270  074A  0DAB               	rlf	___lldiv@quotient+3,f
  4271  074B  0BF4               	decfsz	??___lldiv,f
  4272  074C  2F46               	goto	u2355
  4273  074D                     l1866:
  4274  074D  0823               	movf	___lldiv@divisor+3,w
  4275  074E  0227               	subwf	___lldiv@dividend+3,w
  4276  074F  1D03               	skipz
  4277  0750  2F5B               	goto	u2365
  4278  0751  0822               	movf	___lldiv@divisor+2,w
  4279  0752  0226               	subwf	___lldiv@dividend+2,w
  4280  0753  1D03               	skipz
  4281  0754  2F5B               	goto	u2365
  4282  0755  0821               	movf	___lldiv@divisor+1,w
  4283  0756  0225               	subwf	___lldiv@dividend+1,w
  4284  0757  1D03               	skipz
  4285  0758  2F5B               	goto	u2365
  4286  0759  0820               	movf	___lldiv@divisor,w
  4287  075A  0224               	subwf	___lldiv@dividend,w
  4288  075B                     u2365:
  4289  075B  1C03               	skipc
  4290  075C  2F5E               	goto	u2361
  4291  075D  2F5F               	goto	u2360
  4292  075E                     u2361:
  4293  075E  2F6E               	goto	l1872
  4294  075F                     u2360:
  4295  075F                     l1868:
  4296  075F  0820               	movf	___lldiv@divisor,w
  4297  0760  02A4               	subwf	___lldiv@dividend,f
  4298  0761  0821               	movf	___lldiv@divisor+1,w
  4299  0762  1C03               	skipc
  4300  0763  0F21               	incfsz	___lldiv@divisor+1,w
  4301  0764  02A5               	subwf	___lldiv@dividend+1,f
  4302  0765  0822               	movf	___lldiv@divisor+2,w
  4303  0766  1C03               	skipc
  4304  0767  0F22               	incfsz	___lldiv@divisor+2,w
  4305  0768  02A6               	subwf	___lldiv@dividend+2,f
  4306  0769  0823               	movf	___lldiv@divisor+3,w
  4307  076A  1C03               	skipc
  4308  076B  0F23               	incfsz	___lldiv@divisor+3,w
  4309  076C  02A7               	subwf	___lldiv@dividend+3,f
  4310  076D                     l1870:
  4311  076D  1428               	bsf	___lldiv@quotient,0
  4312  076E                     l1872:
  4313  076E  3001               	movlw	1
  4314  076F                     u2375:
  4315  076F  1003               	clrc
  4316  0770  0CA3               	rrf	___lldiv@divisor+3,f
  4317  0771  0CA2               	rrf	___lldiv@divisor+2,f
  4318  0772  0CA1               	rrf	___lldiv@divisor+1,f
  4319  0773  0CA0               	rrf	___lldiv@divisor,f
  4320  0774  3EFF               	addlw	-1
  4321  0775  1D03               	skipz
  4322  0776  2F6F               	goto	u2375
  4323  0777                     l1874:
  4324  0777  3001               	movlw	1
  4325  0778  02AC               	subwf	___lldiv@counter,f
  4326  0779  1D03               	btfss	3,2
  4327  077A  2F7C               	goto	u2381
  4328  077B  2F7D               	goto	u2380
  4329  077C                     u2381:
  4330  077C  2F44               	goto	l1864
  4331  077D                     u2380:
  4332  077D                     l1876:
  4333  077D  082B               	movf	___lldiv@quotient+3,w
  4334  077E  00A3               	movwf	?___lldiv+3
  4335  077F  082A               	movf	___lldiv@quotient+2,w
  4336  0780  00A2               	movwf	?___lldiv+2
  4337  0781  0829               	movf	___lldiv@quotient+1,w
  4338  0782  00A1               	movwf	?___lldiv+1
  4339  0783  0828               	movf	___lldiv@quotient,w
  4340  0784  00A0               	movwf	?___lldiv
  4341  0785                     l274:
  4342  0785  0008               	return
  4343  0786                     __end_of___lldiv:
  4344                           
  4345                           	psect	text19
  4346  0F07                     __ptext19:	
  4347 ;; *************** function _isr *****************
  4348 ;; Defined at:
  4349 ;;		line 54 in file "mainM.c"
  4350 ;; Parameters:    Size  Location     Type
  4351 ;;		None
  4352 ;; Auto vars:     Size  Location     Type
  4353 ;;		None
  4354 ;; Return value:  Size  Location     Type
  4355 ;;                  1    wreg      void 
  4356 ;; Registers used:
  4357 ;;		wreg, fsr0l, fsr0h, status,2, status,0
  4358 ;; Tracked objects:
  4359 ;;		On entry : 0/0
  4360 ;;		On exit  : 0/0
  4361 ;;		Unchanged: 0/0
  4362 ;; Data sizes:     COMMON   BANK0   BANK1   BANK3   BANK2
  4363 ;;      Params:         0       0       0       0       0
  4364 ;;      Locals:         0       0       0       0       0
  4365 ;;      Temps:          4       0       0       0       0
  4366 ;;      Totals:         4       0       0       0       0
  4367 ;;Total ram usage:        4 bytes
  4368 ;; Hardware stack levels used:    1
  4369 ;; This function calls:
  4370 ;;		Nothing
  4371 ;; This function is called by:
  4372 ;;		Interrupt level 1
  4373 ;; This function uses a non-reentrant model
  4374 ;;
  4375                           
  4376                           
  4377                           ;psect for function _isr
  4378  0F07                     _isr:
  4379  0F07                     i1l1772:
  4380                           
  4381                           ;mainM.c: 55:     if(PIR1bits.RCIF){
  4382  0F07  1283               	bcf	3,5	;RP0=0, select bank0
  4383  0F08  1303               	bcf	3,6	;RP1=0, select bank0
  4384  0F09  1E8C               	btfss	12,5	;volatile
  4385  0F0A  2F0C               	goto	u221_21
  4386  0F0B  2F0D               	goto	u221_20
  4387  0F0C                     u221_21:
  4388  0F0C  2F25               	goto	i1l137
  4389  0F0D                     u221_20:
  4390  0F0D                     i1l1774:
  4391                           
  4392                           ;mainM.c: 56:         auxiliar = RCREG;
  4393  0F0D  081A               	movf	26,w	;volatile
  4394  0F0E  00F0               	movwf	??_isr
  4395  0F0F  0870               	movf	??_isr,w
  4396  0F10  00F6               	movwf	_auxiliar
  4397  0F11                     i1l1776:
  4398                           
  4399                           ;mainM.c: 57:         caracteres[contador] = auxiliar;
  4400  0F11  0876               	movf	_auxiliar,w
  4401  0F12  00F0               	movwf	??_isr
  4402  0F13  0860               	movf	_contador,w
  4403  0F14  3E61               	addlw	(low (_caracteres| 0))& (0+255)
  4404  0F15  0084               	movwf	4
  4405  0F16  0870               	movf	??_isr,w
  4406  0F17  1383               	bcf	3,7	;select IRP bank0
  4407  0F18  0080               	movwf	0
  4408  0F19                     i1l1778:
  4409                           
  4410                           ;mainM.c: 58:         if(auxiliar =='\n') contador = 0;
  4411  0F19  300A               	movlw	10
  4412  0F1A  0676               	xorwf	_auxiliar,w
  4413  0F1B  1D03               	btfss	3,2
  4414  0F1C  2F1E               	goto	u222_21
  4415  0F1D  2F1F               	goto	u222_20
  4416  0F1E                     u222_21:
  4417  0F1E  2F21               	goto	i1l1782
  4418  0F1F                     u222_20:
  4419  0F1F                     i1l1780:
  4420  0F1F  01E0               	clrf	_contador
  4421  0F20  2F25               	goto	i1l137
  4422  0F21                     i1l1782:
  4423  0F21  3001               	movlw	1
  4424  0F22  00F0               	movwf	??_isr
  4425  0F23  0870               	movf	??_isr,w
  4426  0F24  07E0               	addwf	_contador,f
  4427  0F25                     i1l137:
  4428  0F25  0873               	movf	??_isr+3,w
  4429  0F26  008A               	movwf	10
  4430  0F27  0872               	movf	??_isr+2,w
  4431  0F28  0084               	movwf	4
  4432  0F29  0E71               	swapf	??_isr+1,w
  4433  0F2A  0083               	movwf	3
  4434  0F2B  0EFE               	swapf	btemp,f
  4435  0F2C  0E7E               	swapf	btemp,w
  4436  0F2D  0009               	retfie
  4437  0F2E                     __end_of_isr:
  4438  007E                     btemp	set	126	;btemp
  4439  007E                     wtemp0	set	126
  4440                           
  4441                           	psect	intentry
  4442  0004                     __pintentry:	
  4443                           ;incstack = 0
  4444                           ; Regs used in _isr: [wreg-fsr0h+status,2+status,0]
  4445                           
  4446  0004                     interrupt_function:
  4447  007E                     saved_w	set	btemp
  4448  0004  00FE               	movwf	btemp
  4449  0005  0E03               	swapf	3,w
  4450  0006  00F1               	movwf	??_isr+1
  4451  0007  0804               	movf	4,w
  4452  0008  00F2               	movwf	??_isr+2
  4453  0009  080A               	movf	10,w
  4454  000A  00F3               	movwf	??_isr+3
  4455  000B  120A  158A  2F07   	ljmp	_isr
  4456                           
  4457                           	psect	config
  4458                           
  4459                           ;Config register CONFIG1 @ 0x2007
  4460                           ;	Oscillator Selection bits
  4461                           ;	FOSC = INTRC_NOCLKOUT, INTOSCIO oscillator: I/O function on RA6/OSC2/CLKOUT pin, I/O f
      +                          unction on RA7/OSC1/CLKIN
  4462                           ;	Watchdog Timer Enable bit
  4463                           ;	WDTE = OFF, WDT disabled and can be enabled by SWDTEN bit of the WDTCON register
  4464                           ;	Power-up Timer Enable bit
  4465                           ;	PWRTE = OFF, PWRT disabled
  4466                           ;	RE3/MCLR pin function select bit
  4467                           ;	MCLRE = OFF, RE3/MCLR pin function is digital input, MCLR internally tied to VDD
  4468                           ;	Code Protection bit
  4469                           ;	CP = OFF, Program memory code protection is disabled
  4470                           ;	Data Code Protection bit
  4471                           ;	CPD = OFF, Data memory code protection is disabled
  4472                           ;	Brown Out Reset Selection bits
  4473                           ;	BOREN = OFF, BOR disabled
  4474                           ;	Internal External Switchover bit
  4475                           ;	IESO = OFF, Internal/External Switchover mode is disabled
  4476                           ;	Fail-Safe Clock Monitor Enabled bit
  4477                           ;	FCMEN = OFF, Fail-Safe Clock Monitor is disabled
  4478                           ;	Low Voltage Programming Enable bit
  4479                           ;	LVP = OFF, RB3 pin has digital I/O, HV on MCLR must be used for programming
  4480                           ;	In-Circuit Debugger Mode bit
  4481                           ;	DEBUG = 0x1, unprogrammed default
  4482  2007                     	org	8199
  4483  2007  20D4               	dw	8404
  4484                           
  4485                           ;Config register CONFIG2 @ 0x2008
  4486                           ;	Brown-out Reset Selection bit
  4487                           ;	BOR4V = BOR40V, Brown-out Reset set to 4.0V
  4488                           ;	Flash Program Memory Self Write Enable bits
  4489                           ;	WRT = OFF, Write protection off
  4490  2008                     	org	8200
  4491  2008  3FFF               	dw	16383

Data Sizes:
    Strings     21
    Constant    0
    Data        0
    BSS         9
    Persistent  0
    Stack       0

Auto Spaces:
    Space          Size  Autos    Used
    COMMON           14      6      10
    BANK0            80     64      69
    BANK1            80      0       0
    BANK3            96      0       0
    BANK2            96      0       0

Pointer List with Targets:

    atoi@s	PTR const unsigned char  size(1) Largest target is 4
		 -> caracteres(BANK0[4]), 

    sp__int2String	PTR unsigned char  size(1) Largest target is 4
		 -> int2String@cadena(COMMON[4]), 

    sp__adcToString	PTR unsigned char  size(1) Largest target is 5
		 -> adcToString@salida(BANK0[5]), 

    cadenaADC	PTR unsigned char  size(1) Largest target is 5
		 -> NULL(NULL[0]), adcToString@salida(BANK0[5]), 

    UARTSendString@str	PTR const unsigned char  size(2) Largest target is 11
		 -> NULL(NULL[0]), adcToString@salida(BANK0[5]), STR_3(CODE[2]), STR_2(CODE[11]), 
		 -> STR_1(CODE[8]), 


Critical Paths under _main in COMMON

    _atoi->___wmul
    _atoi->_isdigit
    _adcToString->___lwmod
    _adcToString->___wmul
    ___flmul->__Umul8_16
    _UARTSendString->_UARTSendChar
    _UARTInit->___lldiv

Critical Paths under _isr in COMMON

    None.

Critical Paths under _main in BANK0

    _main->_adcToString
    _atoi->___wmul
    _adcToString->___fltol
    ___fltol->___flmul
    ___flmul->___xxtofl
    _UARTInit->___lldiv

Critical Paths under _isr in BANK0

    None.

Critical Paths under _main in BANK1

    None.

Critical Paths under _isr in BANK1

    None.

Critical Paths under _main in BANK3

    None.

Critical Paths under _isr in BANK3

    None.

Critical Paths under _main in BANK2

    None.

Critical Paths under _isr in BANK2

    None.

Call Graph Tables:

 ---------------------------------------------------------------------------------
 (Depth) Function   	        Calls       Base Space   Used Autos Params    Refs
 ---------------------------------------------------------------------------------
 (0) _main                                                 3     3      0    9898
                                             61 BANK0      3     3      0
                           _UARTInit
                     _UARTSendString
                        _adcToString
                               _atoi
                            _spiInit
                            _spiRead
                           _spiWrite
 ---------------------------------------------------------------------------------
 (1) _spiWrite                                             1     1      0      22
                                              4 COMMON     1     1      0
 ---------------------------------------------------------------------------------
 (1) _spiRead                                              0     0      0       0
                     _spiReceiveWait
 ---------------------------------------------------------------------------------
 (2) _spiReceiveWait                                       0     0      0       0
 ---------------------------------------------------------------------------------
 (1) _spiInit                                              4     1      3     456
                                              4 COMMON     1     1      0
                                              0 BANK0      3     0      3
 ---------------------------------------------------------------------------------
 (1) _atoi                                                 8     6      2     934
                                              4 BANK0      8     6      2
                             ___wmul
                            _isdigit
 ---------------------------------------------------------------------------------
 (2) _isdigit                                              2     2      0      68
                                              4 COMMON     2     2      0
 ---------------------------------------------------------------------------------
 (1) _adcToString                                         10     8      2    6486
                                             51 BANK0     10     8      2
                            ___flmul
                            ___fltol
                            ___lwdiv
                            ___lwmod
                             ___wmul
                           ___xxtofl
 ---------------------------------------------------------------------------------
 (2) ___xxtofl                                            14    10      4     566
                                              0 BANK0     14    10      4
 ---------------------------------------------------------------------------------
 (2) ___wmul                                               6     2      4     496
                                              4 COMMON     2     2      0
                                              0 BANK0      4     0      4
 ---------------------------------------------------------------------------------
 (2) ___lwmod                                              6     2      4     412
                                              4 COMMON     2     2      0
                                              0 BANK0      4     0      4
 ---------------------------------------------------------------------------------
 (2) ___lwdiv                                              8     4      4     601
                                              4 COMMON     1     1      0
                                              0 BANK0      7     3      4
 ---------------------------------------------------------------------------------
 (2) ___fltol                                             11     7      4     427
                                             40 BANK0     11     7      4
                            ___flmul (ARG)
                           ___xxtofl (ARG)
 ---------------------------------------------------------------------------------
 (2) ___flmul                                             26    18      8    3353
                                             14 BANK0     26    18      8
                          __Umul8_16
                           ___xxtofl (ARG)
 ---------------------------------------------------------------------------------
 (3) __Umul8_16                                            9     7      2     980
                                              4 COMMON     2     0      2
                                              0 BANK0      7     7      0
 ---------------------------------------------------------------------------------
 (1) _UARTSendString                                       8     5      3    1126
                                              0 BANK0      8     5      3
                       _UARTSendChar
 ---------------------------------------------------------------------------------
 (2) _UARTSendChar                                         1     1      0      31
                                              4 COMMON     1     1      0
 ---------------------------------------------------------------------------------
 (1) _UARTInit                                             9     4      5     874
                                             13 BANK0      9     4      5
                            ___lldiv
 ---------------------------------------------------------------------------------
 (2) ___lldiv                                             14     6      8     601
                                              4 COMMON     1     1      0
                                              0 BANK0     13     5      8
 ---------------------------------------------------------------------------------
 Estimated maximum stack depth 3
 ---------------------------------------------------------------------------------
 (Depth) Function   	        Calls       Base Space   Used Autos Params    Refs
 ---------------------------------------------------------------------------------
 (4) _isr                                                  4     4      0       0
                                              0 COMMON     4     4      0
 ---------------------------------------------------------------------------------
 Estimated maximum stack depth 4
 ---------------------------------------------------------------------------------

 Call Graph Graphs:

 _main (ROOT)
   _UARTInit
     ___lldiv
   _UARTSendString
     _UARTSendChar
   _adcToString
     ___flmul
       __Umul8_16
       ___xxtofl (ARG)
     ___fltol
       ___flmul (ARG)
         __Umul8_16
         ___xxtofl (ARG)
       ___xxtofl (ARG)
     ___lwdiv
     ___lwmod
     ___wmul
     ___xxtofl
   _atoi
     ___wmul
     _isdigit
   _spiInit
   _spiRead
     _spiReceiveWait
   _spiWrite

 _isr (ROOT)

 Address spaces:
Name               Size   Autos  Total    Cost      Usage
BITCOMMON            E      0       0       0        0.0%
EEDATA             100      0       0       0        0.0%
NULL                 0      0       0       0        0.0%
CODE                 0      0       0       0        0.0%
COMMON               E      6       A       1       71.4%
BITSFR0              0      0       0       1        0.0%
SFR0                 0      0       0       1        0.0%
BITSFR1              0      0       0       2        0.0%
SFR1                 0      0       0       2        0.0%
STACK                0      0       0       2        0.0%
ABS                  0      0      4F       3        0.0%
BITBANK0            50      0       0       4        0.0%
BITSFR3              0      0       0       4        0.0%
SFR3                 0      0       0       4        0.0%
BANK0               50     40      45       5       86.2%
BITSFR2              0      0       0       5        0.0%
SFR2                 0      0       0       5        0.0%
BITBANK1            50      0       0       6        0.0%
BANK1               50      0       0       7        0.0%
BITBANK3            60      0       0       8        0.0%
BANK3               60      0       0       9        0.0%
BITBANK2            60      0       0      10        0.0%
BANK2               60      0       0      11        0.0%
DATA                 0      0      4F      12        0.0%


Microchip Technology PIC Macro Assembler V2.31 build 20201012212115 
Symbol Table                                                                                   Fri Jul 30 17:19:05 2021

       UARTInit@baud_rate 002D                         pc 0002               _SSPSTATbits 0094  
                      l22 0EEA                        l25 0EF4                        l33 07DC  
                      l19 071D                        l71 0ED9                        l74 0EDF  
                      l67 07F5                        l68 07FA                        l85 0EE8  
                      l77 0ED8                        fsr 0004       ___wmul@multiplicand 0022  
     __Umul8_16@word_mpld 0024                       l240 0F54                       l149 05AB  
                     l510 0FFF                       l238 0F3C                       l431 0695  
                     l424 06AA                       l520 0FB9                       l274 0785  
                     l434 06AA                       l701 062E                       l633 02EC  
                     l706 0F06                       l627 0380                       l646 0F6B  
                     l639 0374                       l671 0476                       l648 0F7D  
                     l673 050D                       l684 04D7                       l685 04E3  
                     l677 04BB                       _isr 0F07                       fsr0 0004  
                     indf 0000              ___flmul@aexp 003C              ___flmul@bexp 0041  
            ___flmul@sign 003B              ___flmul@temp 0046              ___flmul@prod 0042  
            ___fltol@exp1 0052                      l2000 007A                      l2010 009D  
                    l2002 007F                      l2100 0378                      l2020 012B  
                    l2012 00AA                      l2004 0084                      l2030 018D  
                    l2022 0147                      l2014 00C7                      l2110 046E  
                    l2040 021D                      l2032 01AA                      l2024 0150  
                    l2016 00E3                      l2008 008D                      l2120 0499  
                    l2112 047E                      l2104 0455                      l2200 05B0  
                    l2050 02AF                      l2042 024A                      l2034 01C3  
                    l2026 0160                      l2018 010F                      l2130 04CD  
                    l2122 04A0                      l2106 045A                      l2210 05D0  
                    l2202 05B4                      l2052 02B8                      l2060 02CC  
                    l2044 0270                      l2036 01E0                      l2028 017D  
                    l2140 0500                      l2132 04D1                      l2124 04A4  
                    l2116 0487                      l2108 045E                      l2220 060B  
                    l2212 05D9                      l2204 05BD                      l2150 06B2  
                    l2062 02D0                      l2054 02BC                      l2046 0298  
                    l2038 020D                      l2142 0504                      l2134 04DB  
                    l2126 04B2                      l2118 048C                      l2222 0617  
                    l2214 05E1                      l2206 05C5                      l2160 0710  
                    l2152 06DF                      l2080 0321                      l2072 02F1  
                    l2064 02D1                      l2056 02BD                      l2048 02A1  
                    l2144 0505                      l2136 04E5                      l2128 04C2  
                    l2240 0564                      l2232 050E                      l2224 061E  
                    l2216 05E6                      l2208 05C8                      l1336 0ED9  
                    l2170 0717                      l2162 0711                      l2154 06E1  
                    l2090 0358                      l2074 02F6                      l2082 0327  
                    l2066 02D5                      l2058 02C6                      l2138 04FB  
                    l2250 05A9                      l2242 0579                      l2234 0548  
                    l2172 0718                      l2164 0712                      l2156 070E  
                    l2148 06AB                      l2180 078D                      l2092 035A  
                    l2084 0334                      l2076 0304                      l2068 02E9  
                    l2252 05AA                      l2244 058C                      l2236 055B  
                    l2228 062A                      l2260 0389                      l2174 0719  
                    l2166 0715                      l2158 070F                      l2182 07A9  
                    l2094 0368                      l2086 033F                      l2078 0308  
                    l2246 0591                      l2238 0560                      l2190 07E5  
                    l1710 0EE5                      l2270 03AD                      l2262 038A  
                    l2176 071C                      l2168 0716                      l2184 07B1  
                    l2096 036C                      l2088 034E                      l2248 05A4  
                    l2192 07EB                      l2280 03E5                      l2272 03B7  
                    l2264 038B                      l2256 0381                      l2186 07BE  
                    l2178 0786                      l2098 036D                      l1650 0F03  
                    l2194 07ED                      l1706 0ED4                      l2290 0422  
                    l2282 03F4                      l2274 03BD                      l2266 0396  
                    l2258 0388                      l1652 0F05                      l1644 0EF6  
                    l2196 07F4                      l2188 07DE                      l1708 0EE0  
                    l2292 0431                      l2284 03FA                      l2276 03C7  
                    l2268 03A7                      l1830 0F65                      l1910 068A  
                    l1902 0671                      l1646 0EF7                      l2198 05AF  
                    l2294 0440                      l2286 0404                      l2278 03D8  
                    l1840 0EF0                      l1832 0F74                      l1824 0F58  
                    l1912 069A                      l1904 0683                      l1920 0FC4  
                    l1648 0EFD                      l2288 0415                      l1834 0F79  
                    l1826 0F5A                      l1914 069F                      l1930 0FE7  
                    l1922 0FC7                      l1850 0F4A                      l1842 0F2E  
                    l1860 0733                      l1828 0F61                      l1932 0FED  
                    l1924 0FCE                      l1916 0FBA                      l1852 0F50  
                    l1844 0F30                      l1870 076D                      l1862 0740  
                    l1838 0EEA                      l1934 0FEE                      l1926 0FD2  
                    l1918 0FBE                      l1950 0F94                      l1942 0F7E  
                    l1846 0F36                      l1872 076E                      l1864 0744  
                    l1856 071E                      l1880 062F                      l1936 0FF5  
                    l1928 0FD6                      l1952 0F98                      l1944 0F86  
                    l1960 0FB5                      l1848 0F43                      l1874 0777  
                    l1866 074D                      l1858 0730                      l1970 0031  
                    l1890 065B                      l1882 063C                      l1938 0FFB  
                    l1954 0FA2                      l1946 0F89                      l1868 075F  
                    l1876 077D                      l1980 0046                      l1972 0032  
                    l1964 0020                      l1892 0663                      l1956 0FA8  
                    l1948 0F90                      l1990 005E                      l1982 004E  
                    l1974 0037                      l1966 0027                      l1894 0665  
                    l1886 0645                      l1958 0FAF                      l1992 0063  
                    l1984 0053                      l1976 003C                      l1968 002D  
                    l1896 0669                      l1888 065A                      l1994 0068  
                    l1986 0059                      l1978 0044                      l1996 0070  
                    l1988 005D                      l1998 0072                      ?_isr 0070  
                    STR_1 081B                      STR_2 0810                      STR_3 0823  
                    u3000 045E                      u3001 045D                      u3010 047E  
                    u2050 0EFD                      u3011 047D                      u2051 0EFC  
                    u3100 04F0                      u2060 0F03                      u2061 0F02  
                    u2310 0F50                      u3110 0500                      u3030 049F  
                    u1190 0EDF                      u2311 0F4F                      u3111 04FF  
                    u3031 049E                      u1191 0EDE                      u2320 0730  
                    u2240 0F65                      u2400 0653                      u3120 0504  
                    u3200 07E5                      u2321 072F                      u2241 0F64  
                    u2305 0F44                      u3121 0503                      u3105 04EB  
                    u3025 0491                      u3201 07E4                      u3130 06B2  
                    u2410 0669                      u3050 04C1                      u3210 05BD  
                    u3131 06B1                      u2411 0668                      u3051 04C0  
                    u3211 05BC                      u2340 0744                      u3140 06C0  
                    u2260 0F79                      u2420 0670                      u3220 05C5  
                    u2341 0743                      u2261 0F78                      u2421 066F  
                    u2405 064E                      u3045 04B3                      u3221 05C4  
                    u3150 06EF                      u2270 0EF0                      u2510 0FD6  
                    u3070 04D1                      u3230 05D0                      u2335 0735  
                    u2271 0EEF                      u2255 0F6C                      u2511 0FD5  
                    u3071 04D0                      u3231 05CF                      u2360 075F  
                    u3160 0797                      u2440 0682                      u2280 0F36  
                    u3080 04D7                      u3240 05E1                      u2361 075E  
                    u3145 06BB                      u2441 0681                      u2505 0FC8  
                    u2281 0F35                      u3081 04D6                      u3065 04C6  
                    u3241 05E0                      u3170 07BE                      u2450 0689  
                    u2530 0FE7                      u2610 0FB5                      u3090 04DB  
                    u3250 0617                      u2355 0746                      u3155 06EA  
                    u3171 07BD                      u2451 0688                      u2435 0672  
                    u2531 0FE6                      u2611 0FB4                      u3091 04DA  
                    u3251 0616                      u2380 077D                      u3180 07CA  
                    u2620 0031                      u3260 061E                      u2381 077C  
                    u2365 075B                      u2701 00D5                      u2621 0030  
                    u2525 0FD7                      u2605 0FA9                      u3261 061D  
                    u3190 07DC                      u2702 00DC                      u2630 0037  
                    u2470 069A                      u2390 063C                      u2550 0FFB  
                    u3270 03AD                      u2375 076F                      u3191 07DB  
                    u3175 07BA                      u2711 00F1                      u2703 00E3  
                    u2631 0036                      u2471 0699                      u2391 063B  
                    u2551 0FFA                      u2535 0FE3                      u2295 0F3D  
                    u3271 03AC                      u2712 00F8                      u2640 003C  
                    u2480 069F                      u2560 0F86                      u2801 022C  
                    u2721 011D                      u2713 00FF                      u2641 003B  
                    u2481 069E                      u2465 068C                      u2545 0FEF  
                    u2561 0F85                      u2810 0256                      u2802 0233  
                    u2722 0124                      u2650 005D                      u2490 0FC4  
                    u2803 023A                      u2731 0139                      u2723 012B  
                    u2651 005C                      u2491 0FC3                      u2900 02D5  
                    u2732 0140                      u2660 0063                      u2580 0F98  
                    u2901 02D4                      u2821 0262                      u2733 0147  
                    u2661 0062                      u2581 0F97                      u2910 02E9  
                    u2830 027E                      u2822 0269                      u2670 0068  
                    u2590 0FA2                      u2911 02E8                      u2823 0270  
                    u2815 0251                      u2751 016F                      u2671 0067  
                    u2591 0FA1                      u2575 0F8A                      u3287 0448  
                    u2920 02F0                      u2752 0176                      u2680 007F  
                    u2921 02EF                      u2841 028A                      u2761 019C  
                    u2753 017D                      u2745 0149                      u2681 007E  
                    u2930 02F6                      u2842 0291                      u2762 01A3  
                    u2690 0084                      u2931 02F5                      u2843 0298  
                    u2835 0279                      u2763 01AA                      u2691 0083  
                    u2595 0F9E                      u2940 0308                      u2941 0307  
                    u2781 01D2                      u2950 0317                      u2870 02BC  
                    u2782 01D9                      u2871 02BB                      u2855 029A  
                    u2791 01FF                      u2783 01E0                      u2775 01AC  
                    u2960 0334                      u2792 0206                      u2961 0333  
                    u2865 02B1                      u2793 020D                      u2970 034E  
                    u2890 02D0                      u2971 034D                      u2955 0312  
                    u2891 02CF                      u2980 036C                      u2981 036B  
                    u2965 0330                      u2885 02BF                      u2990 045A  
                    u2975 034A                      u2991 0459                      _atoi 05AC  
                    _main 0381                      btemp 007E                      start 000E  
                   ??_isr 0070             ___fltol@sign1 0051                     ?_atoi 0024  
                   ?_main 0070           __end_of___flmul 0381           __end_of___fltol 06AB  
                   _ANSEL 0188           __end_of___lldiv 0786           __end_of___lwdiv 1000  
                   i1l137 0F25           __end_of___lwmod 0FBA                     _RCREG 001A  
                   _SPBRG 0099                     _PORTA 0005                     _TRISA 0085  
                   _TXREG 0019          __end_of_UARTInit 071E           __end_of_isdigit 0F07  
                   atoi@a 0029                     atoi@s 002B                     pclath 000A  
         __end_of_spiInit 07FB           __end_of_spiRead 0EE9                     status 0003  
                   wtemp0 007E           __initialization 0011              __end_of_atoi 062F  
            __end_of_main 0452         adcToString@digito 005B         adcToString@salida 0056  
                  ??_atoi 0026                    ??_main 005D                    _ANSELH 0189  
                  i1l1780 0F1F                    i1l1772 0F07                    i1l1782 0F21  
                  i1l1774 0F0D                    i1l1776 0F11                    i1l1778 0F19  
                  u221_20 0F0D                    u221_21 0F0C                    u222_20 0F1F  
                  u222_21 0F1E                    _TRISC3 043B                    _TRISC5 043D  
                  _SSPCON 0014                    _SSPBUF 0013          __end_of___xxtofl 050E  
                  ___wmul 0F2E                 ??___flmul 0036                 ??___fltol 004C  
               ??___lldiv 0074                 ??___lwdiv 0074                 ??___lwmod 0074  
 __size_of_UARTSendString 0057                 ??_isdigit 0074        __size_of__Umul8_16 0029  
                  saved_w 007E          __end_of_spiWrite 0ED9                 ??_spiInit 0074  
               ??_spiRead 0074              ___xxtofl@arg 002A              ___xxtofl@exp 0029  
            ___xxtofl@val 0020   __end_of__initialization 001C                ___fltol@f1 0048  
          __pcstackCOMMON 0070                 ?_UARTInit 002D  UARTSendString@max_length 0022  
              _caracteres 0061                __pbssBANK0 0060             ??_adcToString 0055  
       __end_of__Umul8_16 0F7E                __pmaintext 0381                   ?___wmul 0020  
              ??_UARTInit 0032                __pintentry 0004   __size_of_spiReceiveWait 0007  
               ?___xxtofl 0020                   _SSPSTAT 0094                __stringtab 0800  
           ?_UARTSendChar 0070       __end_of_adcToString 05AC                 ?_spiWrite 0070  
                 ___flmul 0020                   ___fltol 062F                   ___lldiv 071E  
         __size_of___wmul 0027                   ___lwdiv 0FBA                   ___lwmod 0F7E  
          _UARTSendString 0786                   __ptext1 0ED3                   __ptext2 0EE0  
                 __ptext3 0ED9                   __ptext4 07DD                   __ptext5 05AC  
                 __ptext6 0EF5                   __ptext7 050E                   __ptext8 0452  
                 __ptext9 0F2E                   _isdigit 0EF5              __size_of_isr 0027  
              ??___xxtofl 0024                   _spiInit 07DD                   _spiRead 0EE0  
    end_of_initialization 001C            ??_UARTSendChar 0074           ___lldiv@divisor 0020  
         ___lldiv@counter 002C                 _RCSTAbits 0018    __end_of_UARTSendString 07DD  
              ??_spiWrite 0074             ___xxtofl@sign 0028                 _TRISCbits 0087  
             spiWrite@dat 0074               ___flmul@grs 003D               _adcToString 050E  
               _TXSTAbits 0098           ?_UARTSendString 0020            _spiReceiveWait 0ED9  
          __end_of___wmul 0F55         __size_of_UARTInit 0073       start_initialization 0011  
             __end_of_isr 0F2E          adcToString@value 0053    __end_of_spiReceiveWait 0EE0  
                ??___wmul 0074                 __Umul8_16 0F55      __end_of_UARTSendChar 0EF5  
               ___flmul@a 0032                 ___flmul@b 002E               __pbssCOMMON 0076  
               ___latbits 0002             __pcstackBANK0 0020         __size_of___xxtofl 00BC  
               _cadenaADC 0078          ___lwdiv@dividend 0022             UARTSendChar@c 0074  
         ?_spiReceiveWait 0070                  ?___flmul 002E                  ?___fltol 0048  
                ?___lldiv 0020                ?__Umul8_16 0074                  ?___lwdiv 0020  
                ?___lwmod 0020         __size_of_spiWrite 0006                 __pstrings 0800  
                ?_isdigit 0070                  ?_spiInit 0020                  ?_spiRead 0070  
        ___lwdiv@quotient 0025      spiInit@sTransmitEdge 0022         interrupt_function 0004  
          ___wmul@product 0074                  _PIE1bits 008C           UARTSendString@i 0026  
               _valueADC2 0077        spiInit@sDataSample 0020                  _PIR1bits 000C  
                _UARTInit 06AB               __stringbase 080F         ___wmul@multiplier 0020  
            ?_adcToString 0053          ??_UARTSendString 0023     __size_of_UARTSendChar 000C  
            UARTInit@BRGH 0031               ??__Umul8_16 0020          __size_of___flmul 0361  
        __size_of___fltol 007C          __size_of___lldiv 0068          __size_of___lwdiv 0046  
        __size_of___lwmod 003C        __end_of__stringtab 0810               _isdigit$909 0074  
                ___xxtofl 0452          __size_of_isdigit 0012           ___lwdiv@divisor 0020  
         ___lwdiv@counter 0024                  __ptext10 0F7E                  __ptext11 0FBA  
                __ptext12 062F                  __ptext13 0020                  __ptext14 0F55  
                __ptext15 0786                  __ptext16 0EE9                  __ptext17 06AB  
                __ptext18 071E                  __ptext19 0F07          __size_of_spiInit 001E  
        __size_of_spiRead 0009                  _contador 0060              _UARTSendChar 0EE9  
                _auxiliar 0076             __size_of_atoi 0083             __size_of_main 00D1  
                _valueADC 0079                  _spiWrite 0ED3              spiInit@sType 0074  
                atoi@sign 0028         spiInit@sClockIdle 0021                _INTCONbits 000B  
                isdigit@c 0075         UARTSendString@str 0020                  intlevel1 0000  
        ___lwmod@dividend 0022          ___lldiv@dividend 0024          ??_spiReceiveWait 0074  
               stringcode 080A    __Umul8_16@multiplicand 0074          ___lldiv@quotient 0028  
         ___lwmod@divisor 0020           ___lwmod@counter 0075                  stringdir 080A  
                stringtab 0800      __Umul8_16@multiplier 0026      __size_of_adcToString 009E  
       __Umul8_16@product 0022  
